
objs/new-tests/7-stack-interleaved-vm.elf:     file format elf32-littlearm


Disassembly of section .text:

00008000 <__code_start__>:
    8000:	e3a00013 	mov	r0, #19, 0
    8004:	e3800080 	orr	r0, r0, #128, 0	; 0x80
    8008:	e129f000 	msr	CPSR_fc, r0
    800c:	e3a01000 	mov	r1, #0, 0
    8010:	ee071f95 	mcr	15, 0, r1, cr7, cr5, {4}
    8014:	e3a0d302 	mov	sp, #134217728	; 0x8000000
    8018:	e3a0b000 	mov	fp, #0, 0
    801c:	eb0013f1 	bl	cfe8 <_cstart>
    8020:	eb001456 	bl	d180 <rpi_reboot>

00008024 <PUT32>:
    8024:	e5801000 	str	r1, [r0]
    8028:	e12fff1e 	bx	lr

0000802c <GET32>:
    802c:	e5900000 	ldr	r0, [r0]
    8030:	e12fff1e 	bx	lr

00008034 <BRANCHTO>:
    8034:	e12fff10 	bx	r0

00008038 <nop_1>:
    8038:	e320f000 	nop	{0}
    803c:	e3a00000 	mov	r0, #0, 0
    8040:	ef000001 	svc	0x00000001

00008044 <nop_10>:
    8044:	e320f000 	nop	{0}
    8048:	e320f000 	nop	{0}
    804c:	e320f000 	nop	{0}
    8050:	e320f000 	nop	{0}
    8054:	e320f000 	nop	{0}
    8058:	e320f000 	nop	{0}
    805c:	e320f000 	nop	{0}
    8060:	e320f000 	nop	{0}
    8064:	e320f000 	nop	{0}
    8068:	e320f000 	nop	{0}
    806c:	e12fff1e 	bx	lr
    8070:	e3a0d409 	mov	sp, #150994944	; 0x9000000
    8074:	e24f0004 	sub	r0, pc, #4, 0
    8078:	e28f1000 	add	r1, pc, #0, 0
    807c:	ea0013a7 	b	cf20 <asm_not_reached_helper>
    8080:	66617473 	.word	0x66617473
    8084:	74732d66 	.word	0x74732d66
    8088:	2e747261 	.word	0x2e747261
    808c:	31313a53 	.word	0x31313a53
    8090:	4e3c3a30 	.word	0x4e3c3a30
    8094:	5220544f 	.word	0x5220544f
    8098:	48434145 	.word	0x48434145
    809c:	003e4445 	.word	0x003e4445

000080a0 <mov_ident>:
    80a0:	e3a00000 	mov	r0, #0, 0
    80a4:	e3a01001 	mov	r1, #1, 0
    80a8:	e3a02002 	mov	r2, #2, 0
    80ac:	e3a03003 	mov	r3, #3, 0
    80b0:	e3a04004 	mov	r4, #4, 0
    80b4:	e3a05005 	mov	r5, #5, 0
    80b8:	e3a06006 	mov	r6, #6, 0
    80bc:	e3a07007 	mov	r7, #7, 0
    80c0:	e3a08008 	mov	r8, #8, 0
    80c4:	e3a09009 	mov	r9, #9, 0
    80c8:	e3a0a00a 	mov	sl, #10, 0
    80cc:	e3a0b00b 	mov	fp, #11, 0
    80d0:	e3a0c00c 	mov	ip, #12, 0
    80d4:	e12fff1e 	bx	lr
    80d8:	e3a0d409 	mov	sp, #150994944	; 0x9000000
    80dc:	e24f0004 	sub	r0, pc, #4, 0
    80e0:	e28f1000 	add	r1, pc, #0, 0
    80e4:	ea00138d 	b	cf20 <asm_not_reached_helper>
    80e8:	66617473 	.word	0x66617473
    80ec:	74732d66 	.word	0x74732d66
    80f0:	2e747261 	.word	0x2e747261
    80f4:	33313a53 	.word	0x33313a53
    80f8:	4e3c3a35 	.word	0x4e3c3a35
    80fc:	5220544f 	.word	0x5220544f
    8100:	48434145 	.word	0x48434145
    8104:	003e4445 	.word	0x003e4445

00008108 <small1>:
    8108:	e3a01001 	mov	r1, #1, 0
    810c:	e3a00000 	mov	r0, #0, 0
    8110:	ef000001 	svc	0x00000001

00008114 <small2>:
    8114:	e3a01002 	mov	r1, #2, 0
    8118:	e3a00000 	mov	r0, #0, 0
    811c:	ef000001 	svc	0x00000001

00008120 <sys_equiv_exit>:
    8120:	e3a00000 	mov	r0, #0, 0
    8124:	ef000001 	svc	0x00000001

00008128 <sys_equiv_putc>:
    8128:	e52de004 	push	{lr}		; (str lr, [sp, #-4]!)
    812c:	e1a01000 	mov	r1, r0
    8130:	e3a00001 	mov	r0, #1, 0
    8134:	ef000001 	svc	0x00000001
    8138:	e49de004 	pop	{lr}		; (ldr lr, [sp], #4)
    813c:	e12fff1e 	bx	lr

00008140 <syscall_invoke_asm>:
    8140:	e52de004 	push	{lr}		; (str lr, [sp, #-4]!)
    8144:	ef000000 	svc	0x00000000
    8148:	e49de004 	pop	{lr}		; (ldr lr, [sp], #4)
    814c:	e12fff1e 	bx	lr

00008150 <equiv_puts>:
    8150:	e92d4010 	push	{r4, lr}
    8154:	e1a04000 	mov	r4, r0
    8158:	e5d40000 	ldrb	r0, [r4]
    815c:	e3500000 	cmp	r0, #0, 0
    8160:	08bd8010 	popeq	{r4, pc}
    8164:	ebffffef 	bl	8128 <sys_equiv_putc>
    8168:	e2844001 	add	r4, r4, #1, 0
    816c:	eafffff9 	b	8158 <equiv_puts+0x8>

00008170 <hello>:
    8170:	e92d4010 	push	{r4, lr}
    8174:	e59f0004 	ldr	r0, [pc, #4]	; 8180 <hello+0x10>
    8178:	ebfffff4 	bl	8150 <equiv_puts>
    817c:	e8bd8010 	pop	{r4, pc}
    8180:	0000d500 	.word	0x0000d500

00008184 <msg>:
    8184:	e92d4010 	push	{r4, lr}
    8188:	ebfffff0 	bl	8150 <equiv_puts>
    818c:	e8bd8010 	pop	{r4, pc}

00008190 <test_vm_no_cache>:
    8190:	e92d4070 	push	{r4, r5, r6, lr}
    8194:	e24dd068 	sub	sp, sp, #104, 0	; 0x68
    8198:	e3a02020 	mov	r2, #32, 0
    819c:	e3a01000 	mov	r1, #0, 0
    81a0:	e28d0048 	add	r0, sp, #72, 0	; 0x48
    81a4:	eb00122c 	bl	ca5c <memset>
    81a8:	e3a04001 	mov	r4, #1, 0
    81ac:	e58d4040 	str	r4, [sp, #64]	; 0x40
    81b0:	e3a03e7d 	mov	r3, #2000	; 0x7d0
    81b4:	e58d3044 	str	r3, [sp, #68]	; 0x44
    81b8:	e58d404c 	str	r4, [sp, #76]	; 0x4c
    81bc:	e5cd4050 	strb	r4, [sp, #80]	; 0x50
    81c0:	e3a0300c 	mov	r3, #12, 0
    81c4:	e58d3054 	str	r3, [sp, #84]	; 0x54
    81c8:	e58d4060 	str	r4, [sp, #96]	; 0x60
    81cc:	e59f3054 	ldr	r3, [pc, #84]	; 8228 <test_vm_no_cache+0x98>
    81d0:	e28d5034 	add	r5, sp, #52, 0	; 0x34
    81d4:	e8930007 	ldm	r3, {r0, r1, r2}
    81d8:	e8850007 	stm	r5, {r0, r1, r2}
    81dc:	e28d6028 	add	r6, sp, #40, 0	; 0x28
    81e0:	e283300c 	add	r3, r3, #12, 0
    81e4:	e8930007 	ldm	r3, {r0, r1, r2}
    81e8:	e8860007 	stm	r6, {r0, r1, r2}
    81ec:	e1a0c00d 	mov	ip, sp
    81f0:	e28de044 	add	lr, sp, #68, 0	; 0x44
    81f4:	e8be000f 	ldm	lr!, {r0, r1, r2, r3}
    81f8:	e8ac000f 	stmia	ip!, {r0, r1, r2, r3}
    81fc:	e8be000f 	ldm	lr!, {r0, r1, r2, r3}
    8200:	e8ac000f 	stmia	ip!, {r0, r1, r2, r3}
    8204:	e59e3000 	ldr	r3, [lr]
    8208:	e58c3000 	str	r3, [ip]
    820c:	e1a03004 	mov	r3, r4
    8210:	e3a02003 	mov	r2, #3, 0
    8214:	e1a01006 	mov	r1, r6
    8218:	e1a00005 	mov	r0, r5
    821c:	eb000a55 	bl	ab78 <interleave_multiple>
    8220:	e28dd068 	add	sp, sp, #104, 0	; 0x68
    8224:	e8bd8070 	pop	{r4, r5, r6, pc}
    8228:	0000d538 	.word	0x0000d538

0000822c <notmain>:
    822c:	e92d4010 	push	{r4, lr}
    8230:	ebffffd6 	bl	8190 <test_vm_no_cache>
    8234:	e59f1010 	ldr	r1, [pc, #16]	; 824c <notmain+0x20>
    8238:	e59f0010 	ldr	r0, [pc, #16]	; 8250 <notmain+0x24>
    823c:	eb00122e 	bl	cafc <printk>
    8240:	e59f000c 	ldr	r0, [pc, #12]	; 8254 <notmain+0x28>
    8244:	eb00122c 	bl	cafc <printk>
    8248:	e8bd8010 	pop	{r4, pc}
    824c:	0000d550 	.word	0x0000d550
    8250:	0000d510 	.word	0x0000d510
    8254:	0000d51c 	.word	0x0000d51c

00008258 <priv_get_sp_lr_asm>:
    8258:	e10f4000 	mrs	r4, CPSR
    825c:	e121f000 	msr	CPSR_c, r0
    8260:	e3a0c000 	mov	ip, #0, 0
    8264:	ee07cf95 	mcr	15, 0, ip, cr7, cr5, {4}
    8268:	e581d000 	str	sp, [r1]
    826c:	e582e000 	str	lr, [r2]
    8270:	e121f004 	msr	CPSR_c, r4
    8274:	e12fff1e 	bx	lr
    8278:	e3a0d409 	mov	sp, #150994944	; 0x9000000
    827c:	e24f0004 	sub	r0, pc, #4, 0
    8280:	e28f1000 	add	r1, pc, #0, 0
    8284:	ea001325 	b	cf20 <asm_not_reached_helper>
    8288:	74697773 	.word	0x74697773
    828c:	6f746863 	.word	0x6f746863
    8290:	6d73612d 	.word	0x6d73612d
    8294:	323a532e 	.word	0x323a532e
    8298:	4e3c3a37 	.word	0x4e3c3a37
    829c:	5220544f 	.word	0x5220544f
    82a0:	48434145 	.word	0x48434145
    82a4:	003e4445 	.word	0x003e4445

000082a8 <switchto_user_asm>:
    82a8:	e1a0d000 	mov	sp, r0
    82ac:	e8dd7fff 	ldm	sp, {r0, r1, r2, r3, r4, r5, r6, r7, r8, r9, sl, fp, ip, sp, lr}^
    82b0:	e28dd03c 	add	sp, sp, #60, 0	; 0x3c
    82b4:	f89d0a00 	rfeia	sp

000082b8 <switchto_priv_asm>:
    82b8:	e5901040 	ldr	r1, [r0, #64]	; 0x40
    82bc:	e129f001 	msr	CPSR_fc, r1
    82c0:	e1a0d000 	mov	sp, r0
    82c4:	e890ffff 	ldm	r0, {r0, r1, r2, r3, r4, r5, r6, r7, r8, r9, sl, fp, ip, sp, lr, pc}
    82c8:	e3a0d409 	mov	sp, #150994944	; 0x9000000
    82cc:	e24f0004 	sub	r0, pc, #4, 0
    82d0:	e28f1000 	add	r1, pc, #0, 0
    82d4:	ea001311 	b	cf20 <asm_not_reached_helper>
    82d8:	74697773 	.word	0x74697773
    82dc:	6f746863 	.word	0x6f746863
    82e0:	6d73612d 	.word	0x6d73612d
    82e4:	353a532e 	.word	0x353a532e
    82e8:	4e3c3a36 	.word	0x4e3c3a36
    82ec:	5220544f 	.word	0x5220544f
    82f0:	48434145 	.word	0x48434145
    82f4:	003e4445 	.word	0x003e4445

000082f8 <cswitchto_priv_asm>:
    82f8:	e5804010 	str	r4, [r0, #16]
    82fc:	e5805014 	str	r5, [r0, #20]
    8300:	e5806018 	str	r6, [r0, #24]
    8304:	e580701c 	str	r7, [r0, #28]
    8308:	e5808020 	str	r8, [r0, #32]
    830c:	e5809024 	str	r9, [r0, #36]	; 0x24
    8310:	e580a028 	str	sl, [r0, #40]	; 0x28
    8314:	e580b02c 	str	fp, [r0, #44]	; 0x2c
    8318:	e580d034 	str	sp, [r0, #52]	; 0x34
    831c:	e580e03c 	str	lr, [r0, #60]	; 0x3c
    8320:	e10f2000 	mrs	r2, CPSR
    8324:	e5802040 	str	r2, [r0, #64]	; 0x40
    8328:	e1a00001 	mov	r0, r1
    832c:	ebffffe1 	bl	82b8 <switchto_priv_asm>
    8330:	ebffffe0 	bl	82b8 <switchto_priv_asm>
    8334:	e3a0d409 	mov	sp, #150994944	; 0x9000000
    8338:	e24f0004 	sub	r0, pc, #4, 0
    833c:	e28f1000 	add	r1, pc, #0, 0
    8340:	ea0012f6 	b	cf20 <asm_not_reached_helper>
    8344:	74697773 	.word	0x74697773
    8348:	6f746863 	.word	0x6f746863
    834c:	6d73612d 	.word	0x6d73612d
    8350:	313a532e 	.word	0x313a532e
    8354:	3c3a3230 	.word	0x3c3a3230
    8358:	20544f4e 	.word	0x20544f4e
    835c:	43414552 	.word	0x43414552
    8360:	3e444548 	.word	0x3e444548
    8364:	00          	.byte	0x00
    8365:	00          	.byte	0x00
	...

00008368 <cswitchto_user_asm>:
    8368:	e5804010 	str	r4, [r0, #16]
    836c:	e5805014 	str	r5, [r0, #20]
    8370:	e5806018 	str	r6, [r0, #24]
    8374:	e580701c 	str	r7, [r0, #28]
    8378:	e5808020 	str	r8, [r0, #32]
    837c:	e5809024 	str	r9, [r0, #36]	; 0x24
    8380:	e580a028 	str	sl, [r0, #40]	; 0x28
    8384:	e580b02c 	str	fp, [r0, #44]	; 0x2c
    8388:	e580d034 	str	sp, [r0, #52]	; 0x34
    838c:	e580e03c 	str	lr, [r0, #60]	; 0x3c
    8390:	e10f2000 	mrs	r2, CPSR
    8394:	e5802040 	str	r2, [r0, #64]	; 0x40
    8398:	e1a00001 	mov	r0, r1
    839c:	ebffffc1 	bl	82a8 <switchto_user_asm>
    83a0:	e3a0d409 	mov	sp, #150994944	; 0x9000000
    83a4:	e24f0004 	sub	r0, pc, #4, 0
    83a8:	e28f1000 	add	r1, pc, #0, 0
    83ac:	ea0012db 	b	cf20 <asm_not_reached_helper>
    83b0:	74697773 	.word	0x74697773
    83b4:	6f746863 	.word	0x6f746863
    83b8:	6d73612d 	.word	0x6d73612d
    83bc:	313a532e 	.word	0x313a532e
    83c0:	3c3a3233 	.word	0x3c3a3233
    83c4:	20544f4e 	.word	0x20544f4e
    83c8:	43414552 	.word	0x43414552
    83cc:	3e444548 	.word	0x3e444548
	...

000083e0 <reset>:
    83e0:	e24ee004 	sub	lr, lr, #4, 0
    83e4:	e3a0d409 	mov	sp, #150994944	; 0x9000000
    83e8:	e92d5fff 	push	{r0, r1, r2, r3, r4, r5, r6, r7, r8, r9, sl, fp, ip, lr}
    83ec:	e1a0000e 	mov	r0, lr
    83f0:	eb001344 	bl	d108 <reset_vector>
    83f4:	e8bd5fff 	pop	{r0, r1, r2, r3, r4, r5, r6, r7, r8, r9, sl, fp, ip, lr}
    83f8:	e1b0f00e 	movs	pc, lr

000083fc <undef>:
    83fc:	e24ee004 	sub	lr, lr, #4, 0
    8400:	e3a0d409 	mov	sp, #150994944	; 0x9000000
    8404:	e92d5fff 	push	{r0, r1, r2, r3, r4, r5, r6, r7, r8, r9, sl, fp, ip, lr}
    8408:	e1a0000e 	mov	r0, lr
    840c:	eb001349 	bl	d138 <undefined_instruction_vector>
    8410:	e8bd5fff 	pop	{r0, r1, r2, r3, r4, r5, r6, r7, r8, r9, sl, fp, ip, lr}
    8414:	e1b0f00e 	movs	pc, lr

00008418 <prefetch_abort>:
    8418:	e24ee004 	sub	lr, lr, #4, 0
    841c:	e3a0d409 	mov	sp, #150994944	; 0x9000000
    8420:	e92d5fff 	push	{r0, r1, r2, r3, r4, r5, r6, r7, r8, r9, sl, fp, ip, lr}
    8424:	e1a0000e 	mov	r0, lr
    8428:	eb00132a 	bl	d0d8 <prefetch_abort_vector>
    842c:	e8bd5fff 	pop	{r0, r1, r2, r3, r4, r5, r6, r7, r8, r9, sl, fp, ip, lr}
    8430:	e1b0f00e 	movs	pc, lr

00008434 <interrupt>:
    8434:	e24ee004 	sub	lr, lr, #4, 0
    8438:	e3a0d409 	mov	sp, #150994944	; 0x9000000
    843c:	e92d5fff 	push	{r0, r1, r2, r3, r4, r5, r6, r7, r8, r9, sl, fp, ip, lr}
    8440:	e1a0000e 	mov	r0, lr
    8444:	eb001317 	bl	d0a8 <int_vector>
    8448:	e8bd5fff 	pop	{r0, r1, r2, r3, r4, r5, r6, r7, r8, r9, sl, fp, ip, lr}
    844c:	e1b0f00e 	movs	pc, lr

00008450 <prefetch_handler_full>:
    8450:	e3a0d409 	mov	sp, #150994944	; 0x9000000
    8454:	e24ee004 	sub	lr, lr, #4, 0
    8458:	e24dd044 	sub	sp, sp, #68, 0	; 0x44
    845c:	e8cd7fff 	stmia	sp, {r0, r1, r2, r3, r4, r5, r6, r7, r8, r9, sl, fp, ip, sp, lr}^
    8460:	e58de03c 	str	lr, [sp, #60]	; 0x3c
    8464:	e14f1000 	mrs	r1, SPSR
    8468:	e58d1040 	str	r1, [sp, #64]	; 0x40
    846c:	e1a0000d 	mov	r0, sp
    8470:	e1a0200e 	mov	r2, lr
    8474:	eb0006c0 	bl	9f7c <prefetch_abort_full_except>
    8478:	e3a0d409 	mov	sp, #150994944	; 0x9000000
    847c:	e24f0004 	sub	r0, pc, #4, 0
    8480:	e28f1000 	add	r1, pc, #0, 0
    8484:	ea0012a5 	b	cf20 <asm_not_reached_helper>
    8488:	6c6c7566 	.word	0x6c6c7566
    848c:	6378652d 	.word	0x6378652d
    8490:	2d747065 	.word	0x2d747065
    8494:	2e6d7361 	.word	0x2e6d7361
    8498:	32313a53 	.word	0x32313a53
    849c:	4e3c3a30 	.word	0x4e3c3a30
    84a0:	5220544f 	.word	0x5220544f
    84a4:	48434145 	.word	0x48434145
    84a8:	003e4445 	.word	0x003e4445

000084ac <data_abort_full>:
    84ac:	e3a0d409 	mov	sp, #150994944	; 0x9000000
    84b0:	e24ee004 	sub	lr, lr, #4, 0
    84b4:	e24dd044 	sub	sp, sp, #68, 0	; 0x44
    84b8:	e8cd7fff 	stmia	sp, {r0, r1, r2, r3, r4, r5, r6, r7, r8, r9, sl, fp, ip, sp, lr}^
    84bc:	e58de03c 	str	lr, [sp, #60]	; 0x3c
    84c0:	e14f1000 	mrs	r1, SPSR
    84c4:	e58d1040 	str	r1, [sp, #64]	; 0x40
    84c8:	e1a0000d 	mov	r0, sp
    84cc:	e1a0200e 	mov	r2, lr
    84d0:	eb0006e3 	bl	a064 <data_abort_full_except>
    84d4:	e3a0d409 	mov	sp, #150994944	; 0x9000000
    84d8:	e24f0004 	sub	r0, pc, #4, 0
    84dc:	e28f1000 	add	r1, pc, #0, 0
    84e0:	ea00128e 	b	cf20 <asm_not_reached_helper>
    84e4:	6c6c7566 	.word	0x6c6c7566
    84e8:	6378652d 	.word	0x6378652d
    84ec:	2d747065 	.word	0x2d747065
    84f0:	2e6d7361 	.word	0x2e6d7361
    84f4:	35313a53 	.word	0x35313a53
    84f8:	4e3c3a30 	.word	0x4e3c3a30
    84fc:	5220544f 	.word	0x5220544f
    8500:	48434145 	.word	0x48434145
    8504:	003e4445 	.word	0x003e4445

00008508 <syscall_full>:
    8508:	e3a0d409 	mov	sp, #150994944	; 0x9000000
    850c:	e24dd044 	sub	sp, sp, #68, 0	; 0x44
    8510:	e8cd7fff 	stmia	sp, {r0, r1, r2, r3, r4, r5, r6, r7, r8, r9, sl, fp, ip, sp, lr}^
    8514:	e58de03c 	str	lr, [sp, #60]	; 0x3c
    8518:	e14f1000 	mrs	r1, SPSR
    851c:	e58d1040 	str	r1, [sp, #64]	; 0x40
    8520:	e1a0000d 	mov	r0, sp
    8524:	e1a0200e 	mov	r2, lr
    8528:	eb000707 	bl	a14c <syscall_full_except>
    852c:	e3a0d409 	mov	sp, #150994944	; 0x9000000
    8530:	e24f0004 	sub	r0, pc, #4, 0
    8534:	e28f1000 	add	r1, pc, #0, 0
    8538:	ea001278 	b	cf20 <asm_not_reached_helper>
    853c:	6c6c7566 	.word	0x6c6c7566
    8540:	6378652d 	.word	0x6378652d
    8544:	2d747065 	.word	0x2d747065
    8548:	2e6d7361 	.word	0x2e6d7361
    854c:	38313a53 	.word	0x38313a53
    8550:	4e3c3a31 	.word	0x4e3c3a31
    8554:	5220544f 	.word	0x5220544f
    8558:	48434145 	.word	0x48434145
    855c:	003e4445 	.word	0x003e4445

00008560 <full_except_ints>:
    8560:	eaffff9e 	b	83e0 <reset>
    8564:	eaffffa4 	b	83fc <undef>
    8568:	eaffffe6 	b	8508 <syscall_full>
    856c:	eaffffb7 	b	8450 <prefetch_handler_full>
    8570:	eaffffcd 	b	84ac <data_abort_full>
    8574:	eaffff99 	b	83e0 <reset>
    8578:	eaffffad 	b	8434 <interrupt>
    857c:	eaffffff 	b	8580 <bad_exception>

00008580 <bad_exception>:
    8580:	e3a0d409 	mov	sp, #150994944	; 0x9000000
    8584:	e24f0004 	sub	r0, pc, #4, 0
    8588:	e28f1000 	add	r1, pc, #0, 0
    858c:	ea001284 	b	cfa4 <asm_bad_exception_helper>
    8590:	6c6c7566 	.word	0x6c6c7566
    8594:	6378652d 	.word	0x6378652d
    8598:	2d747065 	.word	0x2d747065
    859c:	2e6d7361 	.word	0x2e6d7361
    85a0:	30323a53 	.word	0x30323a53
    85a4:	223c3a33 	.word	0x223c3a33
    85a8:	756f6873 	.word	0x756f6873
    85ac:	6e20646c 	.word	0x6e20646c
    85b0:	7220746f 	.word	0x7220746f
    85b4:	68636165 	.word	0x68636165
    85b8:	72656820 	.word	0x72656820
    85bc:	003e2265 	.word	0x003e2265

000085c0 <syscall_trampoline>:
    85c0:	e52de004 	push	{lr}		; (str lr, [sp, #-4]!)
    85c4:	ef000001 	svc	0x00000001
    85c8:	e49de004 	pop	{lr}		; (ldr lr, [sp], #4)
    85cc:	e12fff1e 	bx	lr

000085d0 <get_cache_type>:
    85d0:	e3a00000 	mov	r0, #0, 0
    85d4:	ee100f30 	mrc	15, 0, r0, cr0, cr0, {1}
    85d8:	e12fff1e 	bx	lr

000085dc <get_domain_ctrl_wr>:
    85dc:	e3a00000 	mov	r0, #0, 0
    85e0:	ee130f10 	mrc	15, 0, r0, cr3, cr0, {0}
    85e4:	e12fff1e 	bx	lr

000085e8 <get_ctrl_reg_1>:
    85e8:	e3a00000 	mov	r0, #0, 0
    85ec:	ee110f10 	mrc	15, 0, r0, cr1, cr0, {0}
    85f0:	e12fff1e 	bx	lr

000085f4 <get_control_reg1_uint32_t>:
    85f4:	e3a00000 	mov	r0, #0, 0
    85f8:	ee110f10 	mrc	15, 0, r0, cr1, cr0, {0}
    85fc:	e12fff1e 	bx	lr

00008600 <cp15_ctrl_reg1_wr>:
    8600:	ee010f10 	mcr	15, 0, r0, cr1, cr0, {0}
    8604:	e3a01000 	mov	r1, #0, 0
    8608:	ee071f95 	mcr	15, 0, r1, cr7, cr5, {4}
    860c:	e12fff1e 	bx	lr

00008610 <mmu_reset>:
    8610:	e3a00000 	mov	r0, #0, 0
    8614:	ee070f16 	mcr	15, 0, r0, cr7, cr6, {0}
    8618:	ee070f15 	mcr	15, 0, r0, cr7, cr5, {0}
    861c:	ee070f15 	mcr	15, 0, r0, cr7, cr5, {0}
    8620:	ee070f15 	mcr	15, 0, r0, cr7, cr5, {0}
    8624:	ee070f15 	mcr	15, 0, r0, cr7, cr5, {0}
    8628:	e320f000 	nop	{0}
    862c:	e320f000 	nop	{0}
    8630:	e320f000 	nop	{0}
    8634:	e320f000 	nop	{0}
    8638:	e320f000 	nop	{0}
    863c:	e320f000 	nop	{0}
    8640:	e320f000 	nop	{0}
    8644:	e320f000 	nop	{0}
    8648:	e320f000 	nop	{0}
    864c:	e320f000 	nop	{0}
    8650:	e320f000 	nop	{0}
    8654:	ee080f17 	mcr	15, 0, r0, cr8, cr7, {0}
    8658:	ee070f9a 	mcr	15, 0, r0, cr7, cr10, {4}
    865c:	ee070fd5 	mcr	15, 0, r0, cr7, cr5, {6}
    8660:	ee070f9a 	mcr	15, 0, r0, cr7, cr10, {4}
    8664:	ee070f95 	mcr	15, 0, r0, cr7, cr5, {4}
    8668:	e12fff1e 	bx	lr

0000866c <cp15_domain_ctrl_wr>:
    866c:	ee030f10 	mcr	15, 0, r0, cr3, cr0, {0}
    8670:	e3a00000 	mov	r0, #0, 0
    8674:	ee070f95 	mcr	15, 0, r0, cr7, cr5, {4}
    8678:	e12fff1e 	bx	lr

0000867c <cp15_set_procid_ttbr0>:
    867c:	e3a03000 	mov	r3, #0, 0
    8680:	ee073f9a 	mcr	15, 0, r3, cr7, cr10, {4}
    8684:	ee0d3f30 	mcr	15, 0, r3, cr13, cr0, {1}
    8688:	ee073f95 	mcr	15, 0, r3, cr7, cr5, {4}
    868c:	ee021f10 	mcr	15, 0, r1, cr2, cr0, {0}
    8690:	ee023f30 	mcr	15, 0, r3, cr2, cr0, {1}
    8694:	ee023f50 	mcr	15, 0, r3, cr2, cr0, {2}
    8698:	ee073fd5 	mcr	15, 0, r3, cr7, cr5, {6}
    869c:	ee073f95 	mcr	15, 0, r3, cr7, cr5, {4}
    86a0:	ee0d0f30 	mcr	15, 0, r0, cr13, cr0, {1}
    86a4:	ee073fd5 	mcr	15, 0, r3, cr7, cr5, {6}
    86a8:	ee073f95 	mcr	15, 0, r3, cr7, cr5, {4}
    86ac:	e12fff1e 	bx	lr

000086b0 <mmu_disable_set_asm>:
    86b0:	e3a01000 	mov	r1, #0, 0
    86b4:	ee071f1e 	mcr	15, 0, r1, cr7, cr14, {0}
    86b8:	ee071f9a 	mcr	15, 0, r1, cr7, cr10, {4}
    86bc:	ee010f10 	mcr	15, 0, r0, cr1, cr0, {0}
    86c0:	ee071f95 	mcr	15, 0, r1, cr7, cr5, {4}
    86c4:	ee071f15 	mcr	15, 0, r1, cr7, cr5, {0}
    86c8:	ee071f15 	mcr	15, 0, r1, cr7, cr5, {0}
    86cc:	ee071f15 	mcr	15, 0, r1, cr7, cr5, {0}
    86d0:	ee071f15 	mcr	15, 0, r1, cr7, cr5, {0}
    86d4:	e320f000 	nop	{0}
    86d8:	e320f000 	nop	{0}
    86dc:	e320f000 	nop	{0}
    86e0:	e320f000 	nop	{0}
    86e4:	e320f000 	nop	{0}
    86e8:	e320f000 	nop	{0}
    86ec:	e320f000 	nop	{0}
    86f0:	e320f000 	nop	{0}
    86f4:	e320f000 	nop	{0}
    86f8:	e320f000 	nop	{0}
    86fc:	e320f000 	nop	{0}
    8700:	ee071fd5 	mcr	15, 0, r1, cr7, cr5, {6}
    8704:	ee071f9a 	mcr	15, 0, r1, cr7, cr10, {4}
    8708:	ee071f95 	mcr	15, 0, r1, cr7, cr5, {4}
    870c:	e12fff1e 	bx	lr

00008710 <mmu_enable_set_asm>:
    8710:	e3a02000 	mov	r2, #0, 0
    8714:	ee111f10 	mrc	15, 0, r1, cr1, cr0, {0}
    8718:	e3c11a01 	bic	r1, r1, #4096	; 0x1000
    871c:	ee011f10 	mcr	15, 0, r1, cr1, cr0, {0}
    8720:	ee072f95 	mcr	15, 0, r2, cr7, cr5, {4}
    8724:	ee072f15 	mcr	15, 0, r2, cr7, cr5, {0}
    8728:	ee072f15 	mcr	15, 0, r2, cr7, cr5, {0}
    872c:	ee072f15 	mcr	15, 0, r2, cr7, cr5, {0}
    8730:	ee072f15 	mcr	15, 0, r2, cr7, cr5, {0}
    8734:	e320f000 	nop	{0}
    8738:	e320f000 	nop	{0}
    873c:	e320f000 	nop	{0}
    8740:	e320f000 	nop	{0}
    8744:	e320f000 	nop	{0}
    8748:	e320f000 	nop	{0}
    874c:	e320f000 	nop	{0}
    8750:	e320f000 	nop	{0}
    8754:	e320f000 	nop	{0}
    8758:	e320f000 	nop	{0}
    875c:	e320f000 	nop	{0}
    8760:	ee072f9a 	mcr	15, 0, r2, cr7, cr10, {4}
    8764:	ee010f10 	mcr	15, 0, r0, cr1, cr0, {0}
    8768:	ee072f95 	mcr	15, 0, r2, cr7, cr5, {4}
    876c:	ee072fd5 	mcr	15, 0, r2, cr7, cr5, {6}
    8770:	ee072f95 	mcr	15, 0, r2, cr7, cr5, {4}
    8774:	e12fff1e 	bx	lr

00008778 <mmu_sync_pte_mods>:
    8778:	e3a01000 	mov	r1, #0, 0
    877c:	ee071f1e 	mcr	15, 0, r1, cr7, cr14, {0}
    8780:	ee071f15 	mcr	15, 0, r1, cr7, cr5, {0}
    8784:	ee071f15 	mcr	15, 0, r1, cr7, cr5, {0}
    8788:	ee071f15 	mcr	15, 0, r1, cr7, cr5, {0}
    878c:	ee071f15 	mcr	15, 0, r1, cr7, cr5, {0}
    8790:	e320f000 	nop	{0}
    8794:	e320f000 	nop	{0}
    8798:	e320f000 	nop	{0}
    879c:	e320f000 	nop	{0}
    87a0:	e320f000 	nop	{0}
    87a4:	e320f000 	nop	{0}
    87a8:	e320f000 	nop	{0}
    87ac:	e320f000 	nop	{0}
    87b0:	e320f000 	nop	{0}
    87b4:	e320f000 	nop	{0}
    87b8:	e320f000 	nop	{0}
    87bc:	ee071f9a 	mcr	15, 0, r1, cr7, cr10, {4}
    87c0:	ee081f17 	mcr	15, 0, r1, cr8, cr7, {0}
    87c4:	ee071fd5 	mcr	15, 0, r1, cr7, cr5, {6}
    87c8:	ee071f9a 	mcr	15, 0, r1, cr7, cr10, {4}
    87cc:	ee071f95 	mcr	15, 0, r1, cr7, cr5, {4}
    87d0:	e12fff1e 	bx	lr

000087d4 <eqx_check_sp>:
    87d4:	e52de004 	push	{lr}		; (str lr, [sp, #-4]!)
    87d8:	e24dd00c 	sub	sp, sp, #12, 0
    87dc:	e5903034 	ldr	r3, [r0, #52]	; 0x34
    87e0:	e590205c 	ldr	r2, [r0, #92]	; 0x5c
    87e4:	e1520003 	cmp	r2, r3
    87e8:	8a000005 	bhi	8804 <eqx_check_sp+0x30>
    87ec:	e5902060 	ldr	r2, [r0, #96]	; 0x60
    87f0:	e1520003 	cmp	r2, r3
    87f4:	3a00000a 	bcc	8824 <eqx_check_sp+0x50>
    87f8:	e3a00001 	mov	r0, #1, 0
    87fc:	e28dd00c 	add	sp, sp, #12, 0
    8800:	e49df004 	pop	{pc}		; (ldr pc, [sp], #4)
    8804:	e58d2004 	str	r2, [sp, #4]
    8808:	e58d3000 	str	r3, [sp]
    880c:	e3a0305c 	mov	r3, #92, 0	; 0x5c
    8810:	e59f202c 	ldr	r2, [pc, #44]	; 8844 <eqx_check_sp+0x70>
    8814:	e59f102c 	ldr	r1, [pc, #44]	; 8848 <eqx_check_sp+0x74>
    8818:	e59f002c 	ldr	r0, [pc, #44]	; 884c <eqx_check_sp+0x78>
    881c:	eb0010b6 	bl	cafc <printk>
    8820:	eb0011e5 	bl	cfbc <clean_reboot>
    8824:	e58d2004 	str	r2, [sp, #4]
    8828:	e58d3000 	str	r3, [sp]
    882c:	e3a0305f 	mov	r3, #95, 0	; 0x5f
    8830:	e59f200c 	ldr	r2, [pc, #12]	; 8844 <eqx_check_sp+0x70>
    8834:	e59f100c 	ldr	r1, [pc, #12]	; 8848 <eqx_check_sp+0x74>
    8838:	e59f0010 	ldr	r0, [pc, #16]	; 8850 <eqx_check_sp+0x7c>
    883c:	eb0010ae 	bl	cafc <printk>
    8840:	eb0011dd 	bl	cfbc <clean_reboot>
    8844:	0000dc88 	.word	0x0000dc88
    8848:	0000d558 	.word	0x0000d558
    884c:	0000d568 	.word	0x0000d568
    8850:	0000d5a4 	.word	0x0000d5a4

00008854 <eqx_th_pop>:
    8854:	e52de004 	push	{lr}		; (str lr, [sp, #-4]!)
    8858:	e24dd00c 	sub	sp, sp, #12, 0
    885c:	e2503000 	subs	r3, r0, #0, 0
    8860:	0a000008 	beq	8888 <eqx_th_pop+0x34>
    8864:	e5930000 	ldr	r0, [r3]
    8868:	e3500000 	cmp	r0, #0, 0
    886c:	0a00000d 	beq	88a8 <eqx_th_pop+0x54>
    8870:	e5902044 	ldr	r2, [r0, #68]	; 0x44
    8874:	e5832000 	str	r2, [r3]
    8878:	e3520000 	cmp	r2, #0, 0
    887c:	0a000021 	beq	8908 <eqx_th_pop+0xb4>
    8880:	e28dd00c 	add	sp, sp, #12, 0
    8884:	e49df004 	pop	{pc}		; (ldr pc, [sp], #4)
    8888:	e59f3080 	ldr	r3, [pc, #128]	; 8910 <eqx_th_pop+0xbc>
    888c:	e58d3000 	str	r3, [sp]
    8890:	e3a03044 	mov	r3, #68, 0	; 0x44
    8894:	e59f2078 	ldr	r2, [pc, #120]	; 8914 <eqx_th_pop+0xc0>
    8898:	e59f1078 	ldr	r1, [pc, #120]	; 8918 <eqx_th_pop+0xc4>
    889c:	e59f0078 	ldr	r0, [pc, #120]	; 891c <eqx_th_pop+0xc8>
    88a0:	eb001095 	bl	cafc <printk>
    88a4:	eb0011c4 	bl	cfbc <clean_reboot>
    88a8:	0a00000a 	beq	88d8 <eqx_th_pop+0x84>
    88ac:	e3a03000 	mov	r3, #0, 0
    88b0:	e3530000 	cmp	r3, #0, 0
    88b4:	1afffff1 	bne	8880 <eqx_th_pop+0x2c>
    88b8:	e59f3060 	ldr	r3, [pc, #96]	; 8920 <eqx_th_pop+0xcc>
    88bc:	e58d3000 	str	r3, [sp]
    88c0:	e3a03044 	mov	r3, #68, 0	; 0x44
    88c4:	e59f2048 	ldr	r2, [pc, #72]	; 8914 <eqx_th_pop+0xc0>
    88c8:	e59f1048 	ldr	r1, [pc, #72]	; 8918 <eqx_th_pop+0xc4>
    88cc:	e59f0050 	ldr	r0, [pc, #80]	; 8924 <eqx_th_pop+0xd0>
    88d0:	eb001089 	bl	cafc <printk>
    88d4:	eb0011b8 	bl	cfbc <clean_reboot>
    88d8:	e5933004 	ldr	r3, [r3, #4]
    88dc:	e3530000 	cmp	r3, #0, 0
    88e0:	03a03001 	moveq	r3, #1, 0
    88e4:	0afffff1 	beq	88b0 <eqx_th_pop+0x5c>
    88e8:	e59f3038 	ldr	r3, [pc, #56]	; 8928 <eqx_th_pop+0xd4>
    88ec:	e58d3000 	str	r3, [sp]
    88f0:	e3a03044 	mov	r3, #68, 0	; 0x44
    88f4:	e59f2030 	ldr	r2, [pc, #48]	; 892c <eqx_th_pop+0xd8>
    88f8:	e59f1018 	ldr	r1, [pc, #24]	; 8918 <eqx_th_pop+0xc4>
    88fc:	e59f002c 	ldr	r0, [pc, #44]	; 8930 <eqx_th_pop+0xdc>
    8900:	eb00107d 	bl	cafc <printk>
    8904:	eb0011ac 	bl	cfbc <clean_reboot>
    8908:	e5832004 	str	r2, [r3, #4]
    890c:	eaffffdb 	b	8880 <eqx_th_pop+0x2c>
    8910:	0000d614 	.word	0x0000d614
    8914:	0000dc98 	.word	0x0000dc98
    8918:	0000d558 	.word	0x0000d558
    891c:	0000d5e0 	.word	0x0000d5e0
    8920:	0000d688 	.word	0x0000d688
    8924:	0000d658 	.word	0x0000d658
    8928:	0000d64c 	.word	0x0000d64c
    892c:	0000dca4 	.word	0x0000dca4
    8930:	0000d618 	.word	0x0000d618

00008934 <mode_get>:
    8934:	e200001f 	and	r0, r0, #31, 0
    8938:	e3500012 	cmp	r0, #18, 0
    893c:	13500010 	cmpne	r0, #16, 0
    8940:	012fff1e 	bxeq	lr
    8944:	e3500017 	cmp	r0, #23, 0
    8948:	13500013 	cmpne	r0, #19, 0
    894c:	012fff1e 	bxeq	lr
    8950:	e350001f 	cmp	r0, #31, 0
    8954:	1350001b 	cmpne	r0, #27, 0
    8958:	012fff1e 	bxeq	lr
    895c:	e52de004 	push	{lr}		; (str lr, [sp, #-4]!)
    8960:	e24dd00c 	sub	sp, sp, #12, 0
    8964:	e58d0004 	str	r0, [sp, #4]
    8968:	e58d0000 	str	r0, [sp]
    896c:	e3a03013 	mov	r3, #19, 0
    8970:	e59f200c 	ldr	r2, [pc, #12]	; 8984 <mode_get+0x50>
    8974:	e59f100c 	ldr	r1, [pc, #12]	; 8988 <mode_get+0x54>
    8978:	e59f000c 	ldr	r0, [pc, #12]	; 898c <mode_get+0x58>
    897c:	eb00105e 	bl	cafc <printk>
    8980:	eb00118d 	bl	cfbc <clean_reboot>
    8984:	0000dcb4 	.word	0x0000dcb4
    8988:	0000d698 	.word	0x0000d698
    898c:	0000d6dc 	.word	0x0000d6dc

00008990 <switchto>:
    8990:	e92d4010 	push	{r4, lr}
    8994:	e1a04000 	mov	r4, r0
    8998:	e5900040 	ldr	r0, [r0, #64]	; 0x40
    899c:	ebffffe4 	bl	8934 <mode_get>
    89a0:	e3500010 	cmp	r0, #16, 0
    89a4:	0a000001 	beq	89b0 <switchto+0x20>
    89a8:	e1a00004 	mov	r0, r4
    89ac:	ebfffe41 	bl	82b8 <switchto_priv_asm>
    89b0:	e1a00004 	mov	r0, r4
    89b4:	ebfffe3b 	bl	82a8 <switchto_user_asm>

000089b8 <brkpt_run_one_inst>:
    89b8:	e92d4010 	push	{r4, lr}
    89bc:	e1a04000 	mov	r4, r0
    89c0:	e590003c 	ldr	r0, [r0, #60]	; 0x3c
    89c4:	eb000e10 	bl	c20c <brkpt_mismatch_set>
    89c8:	eb000fa0 	bl	c850 <uart_can_put8>
    89cc:	e3500000 	cmp	r0, #0, 0
    89d0:	0afffffc 	beq	89c8 <brkpt_run_one_inst+0x10>
    89d4:	e1a00004 	mov	r0, r4
    89d8:	ebffffec 	bl	8990 <switchto>

000089dc <eqx_schedule>:
    89dc:	e52de004 	push	{lr}		; (str lr, [sp, #-4]!)
    89e0:	e24dd00c 	sub	sp, sp, #12, 0
    89e4:	e59f31cc 	ldr	r3, [pc, #460]	; 8bb8 <eqx_schedule+0x1dc>
    89e8:	e5933000 	ldr	r3, [r3]
    89ec:	e3530000 	cmp	r3, #0, 0
    89f0:	0a000019 	beq	8a5c <eqx_schedule+0x80>
    89f4:	e59f31c0 	ldr	r3, [pc, #448]	; 8bbc <eqx_schedule+0x1e0>
    89f8:	e593300c 	ldr	r3, [r3, #12]
    89fc:	e3530000 	cmp	r3, #0, 0
    8a00:	0a000006 	beq	8a20 <eqx_schedule+0x44>
    8a04:	e59f31ac 	ldr	r3, [pc, #428]	; 8bb8 <eqx_schedule+0x1dc>
    8a08:	e5933000 	ldr	r3, [r3]
    8a0c:	e5932050 	ldr	r2, [r3, #80]	; 0x50
    8a10:	e59f31a4 	ldr	r3, [pc, #420]	; 8bbc <eqx_schedule+0x1e0>
    8a14:	e5933010 	ldr	r3, [r3, #16]
    8a18:	e1520003 	cmp	r2, r3
    8a1c:	0a000016 	beq	8a7c <eqx_schedule+0xa0>
    8a20:	e59f3194 	ldr	r3, [pc, #404]	; 8bbc <eqx_schedule+0x1e0>
    8a24:	e5d33000 	ldrb	r3, [r3]
    8a28:	e3530002 	cmp	r3, #2, 0
    8a2c:	0a00003a 	beq	8b1c <eqx_schedule+0x140>
    8a30:	e3530003 	cmp	r3, #3, 0
    8a34:	0a000027 	beq	8ad8 <eqx_schedule+0xfc>
    8a38:	e3530005 	cmp	r3, #5, 0
    8a3c:	1a000049 	bne	8b68 <eqx_schedule+0x18c>
    8a40:	eb0011e2 	bl	d1d0 <timer_get_usec>
    8a44:	e59f3170 	ldr	r3, [pc, #368]	; 8bbc <eqx_schedule+0x1e0>
    8a48:	e5931008 	ldr	r1, [r3, #8]
    8a4c:	eb00129a 	bl	d4bc <__aeabi_uidivmod>
    8a50:	e3510000 	cmp	r1, #0, 0
    8a54:	0a000043 	beq	8b68 <eqx_schedule+0x18c>
    8a58:	ea00002f 	b	8b1c <eqx_schedule+0x140>
    8a5c:	e59f315c 	ldr	r3, [pc, #348]	; 8bc0 <eqx_schedule+0x1e4>
    8a60:	e58d3000 	str	r3, [sp]
    8a64:	e3a030f9 	mov	r3, #249, 0	; 0xf9
    8a68:	e59f2154 	ldr	r2, [pc, #340]	; 8bc4 <eqx_schedule+0x1e8>
    8a6c:	e59f1154 	ldr	r1, [pc, #340]	; 8bc8 <eqx_schedule+0x1ec>
    8a70:	e59f0154 	ldr	r0, [pc, #340]	; 8bcc <eqx_schedule+0x1f0>
    8a74:	eb001020 	bl	cafc <printk>
    8a78:	eb00114f 	bl	cfbc <clean_reboot>
    8a7c:	e59f3134 	ldr	r3, [pc, #308]	; 8bb8 <eqx_schedule+0x1dc>
    8a80:	e5933000 	ldr	r3, [r3]
    8a84:	e593206c 	ldr	r2, [r3, #108]	; 0x6c
    8a88:	e59f312c 	ldr	r3, [pc, #300]	; 8bbc <eqx_schedule+0x1e0>
    8a8c:	e5933004 	ldr	r3, [r3, #4]
    8a90:	e1520003 	cmp	r2, r3
    8a94:	1a000033 	bne	8b68 <eqx_schedule+0x18c>
    8a98:	e59f211c 	ldr	r2, [pc, #284]	; 8bbc <eqx_schedule+0x1e0>
    8a9c:	e5922014 	ldr	r2, [r2, #20]
    8aa0:	e3520000 	cmp	r2, #0, 0
    8aa4:	1a000003 	bne	8ab8 <eqx_schedule+0xdc>
    8aa8:	e59f3108 	ldr	r3, [pc, #264]	; 8bb8 <eqx_schedule+0x1dc>
    8aac:	e3a02001 	mov	r2, #1, 0
    8ab0:	e5832004 	str	r2, [r3, #4]
    8ab4:	ea000018 	b	8b1c <eqx_schedule+0x140>
    8ab8:	e59f20f8 	ldr	r2, [pc, #248]	; 8bb8 <eqx_schedule+0x1dc>
    8abc:	e5921000 	ldr	r1, [r2]
    8ac0:	e5922000 	ldr	r2, [r2]
    8ac4:	e592206c 	ldr	r2, [r2, #108]	; 0x6c
    8ac8:	e5911050 	ldr	r1, [r1, #80]	; 0x50
    8acc:	e59f00fc 	ldr	r0, [pc, #252]	; 8bd0 <eqx_schedule+0x1f4>
    8ad0:	eb001009 	bl	cafc <printk>
    8ad4:	eafffff3 	b	8aa8 <eqx_schedule+0xcc>
    8ad8:	e59f30d8 	ldr	r3, [pc, #216]	; 8bb8 <eqx_schedule+0x1dc>
    8adc:	e5933000 	ldr	r3, [r3]
    8ae0:	e5932068 	ldr	r2, [r3, #104]	; 0x68
    8ae4:	e59f30d0 	ldr	r3, [pc, #208]	; 8bbc <eqx_schedule+0x1e0>
    8ae8:	e5933004 	ldr	r3, [r3, #4]
    8aec:	e1520003 	cmp	r2, r3
    8af0:	3a00001c 	bcc	8b68 <eqx_schedule+0x18c>
    8af4:	e59f40bc 	ldr	r4, [pc, #188]	; 8bb8 <eqx_schedule+0x1dc>
    8af8:	e5941000 	ldr	r1, [r4]
    8afc:	e5942000 	ldr	r2, [r4]
    8b00:	e592206c 	ldr	r2, [r2, #108]	; 0x6c
    8b04:	e5911050 	ldr	r1, [r1, #80]	; 0x50
    8b08:	e59f00c4 	ldr	r0, [pc, #196]	; 8bd4 <eqx_schedule+0x1f8>
    8b0c:	eb000ffa 	bl	cafc <printk>
    8b10:	e5943000 	ldr	r3, [r4]
    8b14:	e3a02000 	mov	r2, #0, 0
    8b18:	e5832068 	str	r2, [r3, #104]	; 0x68
    8b1c:	e59f00b4 	ldr	r0, [pc, #180]	; 8bd8 <eqx_schedule+0x1fc>
    8b20:	ebffff4b 	bl	8854 <eqx_th_pop>
    8b24:	e2504000 	subs	r4, r0, #0, 0
    8b28:	0a00000e 	beq	8b68 <eqx_schedule+0x18c>
    8b2c:	e5943070 	ldr	r3, [r4, #112]	; 0x70
    8b30:	e3530000 	cmp	r3, #0, 0
    8b34:	1a00000e 	bne	8b74 <eqx_schedule+0x198>
    8b38:	e59f2078 	ldr	r2, [pc, #120]	; 8bb8 <eqx_schedule+0x1dc>
    8b3c:	e5923000 	ldr	r3, [r2]
    8b40:	e3a01000 	mov	r1, #0, 0
    8b44:	e5831044 	str	r1, [r3, #68]	; 0x44
    8b48:	e592200c 	ldr	r2, [r2, #12]
    8b4c:	e1520001 	cmp	r2, r1
    8b50:	0a000014 	beq	8ba8 <eqx_schedule+0x1cc>
    8b54:	e5823044 	str	r3, [r2, #68]	; 0x44
    8b58:	e59f2058 	ldr	r2, [pc, #88]	; 8bb8 <eqx_schedule+0x1dc>
    8b5c:	e582300c 	str	r3, [r2, #12]
    8b60:	e59f3050 	ldr	r3, [pc, #80]	; 8bb8 <eqx_schedule+0x1dc>
    8b64:	e5834000 	str	r4, [r3]
    8b68:	e59f3048 	ldr	r3, [pc, #72]	; 8bb8 <eqx_schedule+0x1dc>
    8b6c:	e5930000 	ldr	r0, [r3]
    8b70:	ebffff90 	bl	89b8 <brkpt_run_one_inst>
    8b74:	e59f303c 	ldr	r3, [pc, #60]	; 8bb8 <eqx_schedule+0x1dc>
    8b78:	e5931000 	ldr	r1, [r3]
    8b7c:	e5932000 	ldr	r2, [r3]
    8b80:	e5943034 	ldr	r3, [r4, #52]	; 0x34
    8b84:	e58d3004 	str	r3, [sp, #4]
    8b88:	e594303c 	ldr	r3, [r4, #60]	; 0x3c
    8b8c:	e58d3000 	str	r3, [sp]
    8b90:	e5943050 	ldr	r3, [r4, #80]	; 0x50
    8b94:	e592203c 	ldr	r2, [r2, #60]	; 0x3c
    8b98:	e5911050 	ldr	r1, [r1, #80]	; 0x50
    8b9c:	e59f0038 	ldr	r0, [pc, #56]	; 8bdc <eqx_schedule+0x200>
    8ba0:	eb000fd5 	bl	cafc <printk>
    8ba4:	eaffffe3 	b	8b38 <eqx_schedule+0x15c>
    8ba8:	e59f2008 	ldr	r2, [pc, #8]	; 8bb8 <eqx_schedule+0x1dc>
    8bac:	e582300c 	str	r3, [r2, #12]
    8bb0:	e5823008 	str	r3, [r2, #8]
    8bb4:	eaffffe9 	b	8b60 <eqx_schedule+0x184>
    8bb8:	0000f830 	.word	0x0000f830
    8bbc:	0000f810 	.word	0x0000f810
    8bc0:	0000d708 	.word	0x0000d708
    8bc4:	0000dcc0 	.word	0x0000dcc0
    8bc8:	0000d558 	.word	0x0000d558
    8bcc:	0000d658 	.word	0x0000d658
    8bd0:	0000d714 	.word	0x0000d714
    8bd4:	0000d768 	.word	0x0000d768
    8bd8:	0000f838 	.word	0x0000f838
    8bdc:	0000d7b8 	.word	0x0000d7b8

00008be0 <equiv_single_step_handler>:
    8be0:	e92d4010 	push	{r4, lr}
    8be4:	e24dd010 	sub	sp, sp, #16, 0
    8be8:	e1a04000 	mov	r4, r0
    8bec:	eb000ddf 	bl	c370 <brkpt_fault_p>
    8bf0:	e3500000 	cmp	r0, #0, 0
    8bf4:	0a000027 	beq	8c98 <equiv_single_step_handler+0xb8>
    8bf8:	e59f3144 	ldr	r3, [pc, #324]	; 8d44 <equiv_single_step_handler+0x164>
    8bfc:	e5933000 	ldr	r3, [r3]
    8c00:	e58d300c 	str	r3, [sp, #12]
    8c04:	e59d300c 	ldr	r3, [sp, #12]
    8c08:	e3530000 	cmp	r3, #0, 0
    8c0c:	0a000027 	beq	8cb0 <equiv_single_step_handler+0xd0>
    8c10:	e59d000c 	ldr	r0, [sp, #12]
    8c14:	e3a02044 	mov	r2, #68, 0	; 0x44
    8c18:	e1a01004 	mov	r1, r4
    8c1c:	eb000f63 	bl	c9b0 <memcpy>
    8c20:	e59d200c 	ldr	r2, [sp, #12]
    8c24:	e5923068 	ldr	r3, [r2, #104]	; 0x68
    8c28:	e2833001 	add	r3, r3, #1, 0
    8c2c:	e5823068 	str	r3, [r2, #104]	; 0x68
    8c30:	e59d200c 	ldr	r2, [sp, #12]
    8c34:	e592306c 	ldr	r3, [r2, #108]	; 0x6c
    8c38:	e2833001 	add	r3, r3, #1, 0
    8c3c:	e582306c 	str	r3, [r2, #108]	; 0x6c
    8c40:	e59d200c 	ldr	r2, [sp, #12]
    8c44:	e59d300c 	ldr	r3, [sp, #12]
    8c48:	e593304c 	ldr	r3, [r3, #76]	; 0x4c
    8c4c:	e59d100c 	ldr	r1, [sp, #12]
    8c50:	e3520000 	cmp	r2, #0, 0
    8c54:	0a00002d 	beq	8d10 <equiv_single_step_handler+0x130>
    8c58:	e3a0c011 	mov	ip, #17, 0
    8c5c:	e35c0000 	cmp	ip, #0, 0
    8c60:	0a00001a 	beq	8cd0 <equiv_single_step_handler+0xf0>
    8c64:	e5d2e001 	ldrb	lr, [r2, #1]
    8c68:	e5d20000 	ldrb	r0, [r2]
    8c6c:	e180040e 	orr	r0, r0, lr, lsl #8
    8c70:	e0800003 	add	r0, r0, r3
    8c74:	e5d2e003 	ldrb	lr, [r2, #3]
    8c78:	e5d23002 	ldrb	r3, [r2, #2]
    8c7c:	e183340e 	orr	r3, r3, lr, lsl #8
    8c80:	e0203583 	eor	r3, r0, r3, lsl #11
    8c84:	e0233800 	eor	r3, r3, r0, lsl #16
    8c88:	e2822004 	add	r2, r2, #4, 0
    8c8c:	e08335a3 	add	r3, r3, r3, lsr #11
    8c90:	e24cc001 	sub	ip, ip, #1, 0
    8c94:	eafffff0 	b	8c5c <equiv_single_step_handler+0x7c>
    8c98:	e3a03f5e 	mov	r3, #376	; 0x178
    8c9c:	e59f20a4 	ldr	r2, [pc, #164]	; 8d48 <equiv_single_step_handler+0x168>
    8ca0:	e59f10a4 	ldr	r1, [pc, #164]	; 8d4c <equiv_single_step_handler+0x16c>
    8ca4:	e59f00a4 	ldr	r0, [pc, #164]	; 8d50 <equiv_single_step_handler+0x170>
    8ca8:	eb000f93 	bl	cafc <printk>
    8cac:	eb0010c2 	bl	cfbc <clean_reboot>
    8cb0:	e59f309c 	ldr	r3, [pc, #156]	; 8d54 <equiv_single_step_handler+0x174>
    8cb4:	e58d3000 	str	r3, [sp]
    8cb8:	e59f3098 	ldr	r3, [pc, #152]	; 8d58 <equiv_single_step_handler+0x178>
    8cbc:	e59f2084 	ldr	r2, [pc, #132]	; 8d48 <equiv_single_step_handler+0x168>
    8cc0:	e59f1084 	ldr	r1, [pc, #132]	; 8d4c <equiv_single_step_handler+0x16c>
    8cc4:	e59f0090 	ldr	r0, [pc, #144]	; 8d5c <equiv_single_step_handler+0x17c>
    8cc8:	eb000f8b 	bl	cafc <printk>
    8ccc:	eb0010ba 	bl	cfbc <clean_reboot>
    8cd0:	e0233183 	eor	r3, r3, r3, lsl #3
    8cd4:	e08332a3 	add	r3, r3, r3, lsr #5
    8cd8:	e0233203 	eor	r3, r3, r3, lsl #4
    8cdc:	e08338a3 	add	r3, r3, r3, lsr #17
    8ce0:	e0233c83 	eor	r3, r3, r3, lsl #25
    8ce4:	e0833323 	add	r3, r3, r3, lsr #6
    8ce8:	e581304c 	str	r3, [r1, #76]	; 0x4c
    8cec:	e59d300c 	ldr	r3, [sp, #12]
    8cf0:	e5933070 	ldr	r3, [r3, #112]	; 0x70
    8cf4:	e3530000 	cmp	r3, #0, 0
    8cf8:	0a000003 	beq	8d0c <equiv_single_step_handler+0x12c>
    8cfc:	e59f3040 	ldr	r3, [pc, #64]	; 8d44 <equiv_single_step_handler+0x164>
    8d00:	e5933010 	ldr	r3, [r3, #16]
    8d04:	e3530000 	cmp	r3, #0, 0
    8d08:	0a000002 	beq	8d18 <equiv_single_step_handler+0x138>
    8d0c:	ebffff32 	bl	89dc <eqx_schedule>
    8d10:	e3a03000 	mov	r3, #0, 0
    8d14:	eafffff3 	b	8ce8 <equiv_single_step_handler+0x108>
    8d18:	e59d100c 	ldr	r1, [sp, #12]
    8d1c:	e59d200c 	ldr	r2, [sp, #12]
    8d20:	e59d300c 	ldr	r3, [sp, #12]
    8d24:	e593304c 	ldr	r3, [r3, #76]	; 0x4c
    8d28:	e58d3000 	str	r3, [sp]
    8d2c:	e594303c 	ldr	r3, [r4, #60]	; 0x3c
    8d30:	e5922068 	ldr	r2, [r2, #104]	; 0x68
    8d34:	e5911050 	ldr	r1, [r1, #80]	; 0x50
    8d38:	e59f0020 	ldr	r0, [pc, #32]	; 8d60 <equiv_single_step_handler+0x180>
    8d3c:	eb000f6e 	bl	cafc <printk>
    8d40:	eafffff1 	b	8d0c <equiv_single_step_handler+0x12c>
    8d44:	0000f830 	.word	0x0000f830
    8d48:	0000dcd0 	.word	0x0000dcd0
    8d4c:	0000d558 	.word	0x0000d558
    8d50:	0000d7ec 	.word	0x0000d7ec
    8d54:	0000d824 	.word	0x0000d824
    8d58:	0000017b 	.word	0x0000017b
    8d5c:	0000d658 	.word	0x0000d658
    8d60:	0000d828 	.word	0x0000d828

00008d64 <equiv_syscall_handler>:
    8d64:	e92d4070 	push	{r4, r5, r6, lr}
    8d68:	e24dd018 	sub	sp, sp, #24, 0
    8d6c:	e1a04000 	mov	r4, r0
    8d70:	e14f0000 	mrs	r0, SPSR
    8d74:	e5943040 	ldr	r3, [r4, #64]	; 0x40
    8d78:	e1530000 	cmp	r3, r0
    8d7c:	0a000007 	beq	8da0 <equiv_syscall_handler+0x3c>
    8d80:	e59f331c 	ldr	r3, [pc, #796]	; 90a4 <equiv_syscall_handler+0x340>
    8d84:	e58d3000 	str	r3, [sp]
    8d88:	e3a03f72 	mov	r3, #456	; 0x1c8
    8d8c:	e59f2314 	ldr	r2, [pc, #788]	; 90a8 <equiv_syscall_handler+0x344>
    8d90:	e59f1314 	ldr	r1, [pc, #788]	; 90ac <equiv_syscall_handler+0x348>
    8d94:	e59f0314 	ldr	r0, [pc, #788]	; 90b0 <equiv_syscall_handler+0x34c>
    8d98:	eb000f57 	bl	cafc <printk>
    8d9c:	eb001086 	bl	cfbc <clean_reboot>
    8da0:	ebfffee3 	bl	8934 <mode_get>
    8da4:	e3500010 	cmp	r0, #16, 0
    8da8:	1a000013 	bne	8dfc <equiv_syscall_handler+0x98>
    8dac:	e59f3300 	ldr	r3, [pc, #768]	; 90b4 <equiv_syscall_handler+0x350>
    8db0:	e5933000 	ldr	r3, [r3]
    8db4:	e58d3014 	str	r3, [sp, #20]
    8db8:	e59d3014 	ldr	r3, [sp, #20]
    8dbc:	e3530000 	cmp	r3, #0, 0
    8dc0:	0a000015 	beq	8e1c <equiv_syscall_handler+0xb8>
    8dc4:	e59d0014 	ldr	r0, [sp, #20]
    8dc8:	e3a02044 	mov	r2, #68, 0	; 0x44
    8dcc:	e1a01004 	mov	r1, r4
    8dd0:	eb000ef6 	bl	c9b0 <memcpy>
    8dd4:	e59d0014 	ldr	r0, [sp, #20]
    8dd8:	ebfffe7d 	bl	87d4 <eqx_check_sp>
    8ddc:	e5946000 	ldr	r6, [r4]
    8de0:	e3560000 	cmp	r6, #0, 0
    8de4:	0a000014 	beq	8e3c <equiv_syscall_handler+0xd8>
    8de8:	e3560001 	cmp	r6, #1, 0
    8dec:	1a0000aa 	bne	909c <equiv_syscall_handler+0x338>
    8df0:	e5d40004 	ldrb	r0, [r4, #4]
    8df4:	eb000e9d 	bl	c870 <uart_put8>
    8df8:	ebfffef7 	bl	89dc <eqx_schedule>
    8dfc:	e59f32b4 	ldr	r3, [pc, #692]	; 90b8 <equiv_syscall_handler+0x354>
    8e00:	e58d3000 	str	r3, [sp]
    8e04:	e59f32b0 	ldr	r3, [pc, #688]	; 90bc <equiv_syscall_handler+0x358>
    8e08:	e59f2298 	ldr	r2, [pc, #664]	; 90a8 <equiv_syscall_handler+0x344>
    8e0c:	e59f1298 	ldr	r1, [pc, #664]	; 90ac <equiv_syscall_handler+0x348>
    8e10:	e59f0298 	ldr	r0, [pc, #664]	; 90b0 <equiv_syscall_handler+0x34c>
    8e14:	eb000f38 	bl	cafc <printk>
    8e18:	eb001067 	bl	cfbc <clean_reboot>
    8e1c:	e59f329c 	ldr	r3, [pc, #668]	; 90c0 <equiv_syscall_handler+0x35c>
    8e20:	e58d3000 	str	r3, [sp]
    8e24:	e59f3298 	ldr	r3, [pc, #664]	; 90c4 <equiv_syscall_handler+0x360>
    8e28:	e59f2278 	ldr	r2, [pc, #632]	; 90a8 <equiv_syscall_handler+0x344>
    8e2c:	e59f1278 	ldr	r1, [pc, #632]	; 90ac <equiv_syscall_handler+0x348>
    8e30:	e59f0278 	ldr	r0, [pc, #632]	; 90b0 <equiv_syscall_handler+0x34c>
    8e34:	eb000f30 	bl	cafc <printk>
    8e38:	eb00105f 	bl	cfbc <clean_reboot>
    8e3c:	e59f3284 	ldr	r3, [pc, #644]	; 90c8 <equiv_syscall_handler+0x364>
    8e40:	e5933014 	ldr	r3, [r3, #20]
    8e44:	e3530000 	cmp	r3, #0, 0
    8e48:	1a000029 	bne	8ef4 <equiv_syscall_handler+0x190>
    8e4c:	e59f3274 	ldr	r3, [pc, #628]	; 90c8 <equiv_syscall_handler+0x364>
    8e50:	e593300c 	ldr	r3, [r3, #12]
    8e54:	e3530000 	cmp	r3, #0, 0
    8e58:	0a000005 	beq	8e74 <equiv_syscall_handler+0x110>
    8e5c:	e59d3014 	ldr	r3, [sp, #20]
    8e60:	e5932050 	ldr	r2, [r3, #80]	; 0x50
    8e64:	e59f325c 	ldr	r3, [pc, #604]	; 90c8 <equiv_syscall_handler+0x364>
    8e68:	e5933010 	ldr	r3, [r3, #16]
    8e6c:	e1520003 	cmp	r2, r3
    8e70:	0a00002a 	beq	8f20 <equiv_syscall_handler+0x1bc>
    8e74:	e59f324c 	ldr	r3, [pc, #588]	; 90c8 <equiv_syscall_handler+0x364>
    8e78:	e593300c 	ldr	r3, [r3, #12]
    8e7c:	e3530000 	cmp	r3, #0, 0
    8e80:	0a000005 	beq	8e9c <equiv_syscall_handler+0x138>
    8e84:	e59d3014 	ldr	r3, [sp, #20]
    8e88:	e5932050 	ldr	r2, [r3, #80]	; 0x50
    8e8c:	e59f3234 	ldr	r3, [pc, #564]	; 90c8 <equiv_syscall_handler+0x364>
    8e90:	e5933010 	ldr	r3, [r3, #16]
    8e94:	e1520003 	cmp	r2, r3
    8e98:	0a000033 	beq	8f6c <equiv_syscall_handler+0x208>
    8e9c:	e59d3014 	ldr	r3, [sp, #20]
    8ea0:	e5933048 	ldr	r3, [r3, #72]	; 0x48
    8ea4:	e3530000 	cmp	r3, #0, 0
    8ea8:	1a00003e 	bne	8fa8 <equiv_syscall_handler+0x244>
    8eac:	e59d2014 	ldr	r2, [sp, #20]
    8eb0:	e59d3014 	ldr	r3, [sp, #20]
    8eb4:	e592204c 	ldr	r2, [r2, #76]	; 0x4c
    8eb8:	e5832048 	str	r2, [r3, #72]	; 0x48
    8ebc:	e59d3014 	ldr	r3, [sp, #20]
    8ec0:	e593204c 	ldr	r2, [r3, #76]	; 0x4c
    8ec4:	e59f41e8 	ldr	r4, [pc, #488]	; 90b4 <equiv_syscall_handler+0x350>
    8ec8:	e5943018 	ldr	r3, [r4, #24]
    8ecc:	e0833002 	add	r3, r3, r2
    8ed0:	e5843018 	str	r3, [r4, #24]
    8ed4:	e2840008 	add	r0, r4, #8, 0
    8ed8:	ebfffe5d 	bl	8854 <eqx_th_pop>
    8edc:	e5840000 	str	r0, [r4]
    8ee0:	e3500000 	cmp	r0, #0, 0
    8ee4:	0a000052 	beq	9034 <equiv_syscall_handler+0x2d0>
    8ee8:	e59f31c4 	ldr	r3, [pc, #452]	; 90b4 <equiv_syscall_handler+0x350>
    8eec:	e5930000 	ldr	r0, [r3]
    8ef0:	ebfffeb0 	bl	89b8 <brkpt_run_one_inst>
    8ef4:	e59f11ac 	ldr	r1, [pc, #428]	; 90a8 <equiv_syscall_handler+0x344>
    8ef8:	e59f01cc 	ldr	r0, [pc, #460]	; 90cc <equiv_syscall_handler+0x368>
    8efc:	eb000efe 	bl	cafc <printk>
    8f00:	e59d1014 	ldr	r1, [sp, #20]
    8f04:	e59d3014 	ldr	r3, [sp, #20]
    8f08:	e593304c 	ldr	r3, [r3, #76]	; 0x4c
    8f0c:	e5942004 	ldr	r2, [r4, #4]
    8f10:	e5911050 	ldr	r1, [r1, #80]	; 0x50
    8f14:	e59f01b4 	ldr	r0, [pc, #436]	; 90d0 <equiv_syscall_handler+0x36c>
    8f18:	eb000ef7 	bl	cafc <printk>
    8f1c:	eaffffca 	b	8e4c <equiv_syscall_handler+0xe8>
    8f20:	e59f318c 	ldr	r3, [pc, #396]	; 90b4 <equiv_syscall_handler+0x350>
    8f24:	e5933004 	ldr	r3, [r3, #4]
    8f28:	e3530000 	cmp	r3, #0, 0
    8f2c:	1affffd0 	bne	8e74 <equiv_syscall_handler+0x110>
    8f30:	e59f3190 	ldr	r3, [pc, #400]	; 90c8 <equiv_syscall_handler+0x364>
    8f34:	e5933014 	ldr	r3, [r3, #20]
    8f38:	e3530000 	cmp	r3, #0, 0
    8f3c:	1a000003 	bne	8f50 <equiv_syscall_handler+0x1ec>
    8f40:	e59f316c 	ldr	r3, [pc, #364]	; 90b4 <equiv_syscall_handler+0x350>
    8f44:	e3a02001 	mov	r2, #1, 0
    8f48:	e5832014 	str	r2, [r3, #20]
    8f4c:	eaffffc8 	b	8e74 <equiv_syscall_handler+0x110>
    8f50:	e59d3014 	ldr	r3, [sp, #20]
    8f54:	e59d2014 	ldr	r2, [sp, #20]
    8f58:	e592206c 	ldr	r2, [r2, #108]	; 0x6c
    8f5c:	e5931050 	ldr	r1, [r3, #80]	; 0x50
    8f60:	e59f016c 	ldr	r0, [pc, #364]	; 90d4 <equiv_syscall_handler+0x370>
    8f64:	eb000ee4 	bl	cafc <printk>
    8f68:	eafffff4 	b	8f40 <equiv_syscall_handler+0x1dc>
    8f6c:	e59f3154 	ldr	r3, [pc, #340]	; 90c8 <equiv_syscall_handler+0x364>
    8f70:	e5933014 	ldr	r3, [r3, #20]
    8f74:	e3530000 	cmp	r3, #0, 0
    8f78:	1a000003 	bne	8f8c <equiv_syscall_handler+0x228>
    8f7c:	e59f3130 	ldr	r3, [pc, #304]	; 90b4 <equiv_syscall_handler+0x350>
    8f80:	e3a02001 	mov	r2, #1, 0
    8f84:	e5832004 	str	r2, [r3, #4]
    8f88:	eaffffc3 	b	8e9c <equiv_syscall_handler+0x138>
    8f8c:	e59d3014 	ldr	r3, [sp, #20]
    8f90:	e59d2014 	ldr	r2, [sp, #20]
    8f94:	e592206c 	ldr	r2, [r2, #108]	; 0x6c
    8f98:	e5931050 	ldr	r1, [r3, #80]	; 0x50
    8f9c:	e59f0134 	ldr	r0, [pc, #308]	; 90d8 <equiv_syscall_handler+0x374>
    8fa0:	eb000ed5 	bl	cafc <printk>
    8fa4:	eafffff4 	b	8f7c <equiv_syscall_handler+0x218>
    8fa8:	e59d3014 	ldr	r3, [sp, #20]
    8fac:	e5933048 	ldr	r3, [r3, #72]	; 0x48
    8fb0:	e3530000 	cmp	r3, #0, 0
    8fb4:	0affffc0 	beq	8ebc <equiv_syscall_handler+0x158>
    8fb8:	e59d3014 	ldr	r3, [sp, #20]
    8fbc:	e5934048 	ldr	r4, [r3, #72]	; 0x48
    8fc0:	e59d3014 	ldr	r3, [sp, #20]
    8fc4:	e593504c 	ldr	r5, [r3, #76]	; 0x4c
    8fc8:	e1540005 	cmp	r4, r5
    8fcc:	1a00000d 	bne	9008 <equiv_syscall_handler+0x2a4>
    8fd0:	e59f30f0 	ldr	r3, [pc, #240]	; 90c8 <equiv_syscall_handler+0x364>
    8fd4:	e5933014 	ldr	r3, [r3, #20]
    8fd8:	e3530000 	cmp	r3, #0, 0
    8fdc:	0affffb6 	beq	8ebc <equiv_syscall_handler+0x158>
    8fe0:	e59f10c0 	ldr	r1, [pc, #192]	; 90a8 <equiv_syscall_handler+0x344>
    8fe4:	e59f00e0 	ldr	r0, [pc, #224]	; 90cc <equiv_syscall_handler+0x368>
    8fe8:	eb000ec3 	bl	cafc <printk>
    8fec:	e59d1014 	ldr	r1, [sp, #20]
    8ff0:	e1a03005 	mov	r3, r5
    8ff4:	e1a02004 	mov	r2, r4
    8ff8:	e5911050 	ldr	r1, [r1, #80]	; 0x50
    8ffc:	e59f00d8 	ldr	r0, [pc, #216]	; 90dc <equiv_syscall_handler+0x378>
    9000:	eb000ebd 	bl	cafc <printk>
    9004:	eaffffac 	b	8ebc <equiv_syscall_handler+0x158>
    9008:	e59d3014 	ldr	r3, [sp, #20]
    900c:	e58d5008 	str	r5, [sp, #8]
    9010:	e58d4004 	str	r4, [sp, #4]
    9014:	e5933050 	ldr	r3, [r3, #80]	; 0x50
    9018:	e58d3000 	str	r3, [sp]
    901c:	e59f30bc 	ldr	r3, [pc, #188]	; 90e0 <equiv_syscall_handler+0x37c>
    9020:	e59f2080 	ldr	r2, [pc, #128]	; 90a8 <equiv_syscall_handler+0x344>
    9024:	e59f1080 	ldr	r1, [pc, #128]	; 90ac <equiv_syscall_handler+0x348>
    9028:	e59f00b4 	ldr	r0, [pc, #180]	; 90e4 <equiv_syscall_handler+0x380>
    902c:	eb000eb2 	bl	cafc <printk>
    9030:	eb000fe1 	bl	cfbc <clean_reboot>
    9034:	e59f308c 	ldr	r3, [pc, #140]	; 90c8 <equiv_syscall_handler+0x364>
    9038:	e5933014 	ldr	r3, [r3, #20]
    903c:	e3530000 	cmp	r3, #0, 0
    9040:	1a000001 	bne	904c <equiv_syscall_handler+0x2e8>
    9044:	e59f009c 	ldr	r0, [pc, #156]	; 90e8 <equiv_syscall_handler+0x384>
    9048:	ebfffe50 	bl	8990 <switchto>
    904c:	e59f1054 	ldr	r1, [pc, #84]	; 90a8 <equiv_syscall_handler+0x344>
    9050:	e59f0074 	ldr	r0, [pc, #116]	; 90cc <equiv_syscall_handler+0x368>
    9054:	eb000ea8 	bl	cafc <printk>
    9058:	e59f008c 	ldr	r0, [pc, #140]	; 90ec <equiv_syscall_handler+0x388>
    905c:	eb000ea6 	bl	cafc <printk>
    9060:	eafffff7 	b	9044 <equiv_syscall_handler+0x2e0>
    9064:	e7942105 	ldr	r2, [r4, r5, lsl #2]
    9068:	e1a01005 	mov	r1, r5
    906c:	e59f007c 	ldr	r0, [pc, #124]	; 90f0 <equiv_syscall_handler+0x38c>
    9070:	eb000ea1 	bl	cafc <printk>
    9074:	e2855001 	add	r5, r5, #1, 0
    9078:	e3550010 	cmp	r5, #16, 0
    907c:	dafffff8 	ble	9064 <equiv_syscall_handler+0x300>
    9080:	e58d6000 	str	r6, [sp]
    9084:	e59f3068 	ldr	r3, [pc, #104]	; 90f4 <equiv_syscall_handler+0x390>
    9088:	e59f2018 	ldr	r2, [pc, #24]	; 90a8 <equiv_syscall_handler+0x344>
    908c:	e59f1018 	ldr	r1, [pc, #24]	; 90ac <equiv_syscall_handler+0x348>
    9090:	e59f0060 	ldr	r0, [pc, #96]	; 90f8 <equiv_syscall_handler+0x394>
    9094:	eb000e98 	bl	cafc <printk>
    9098:	eb000fc7 	bl	cfbc <clean_reboot>
    909c:	e3a05000 	mov	r5, #0, 0
    90a0:	eafffff4 	b	9078 <equiv_syscall_handler+0x314>
    90a4:	0000d850 	.word	0x0000d850
    90a8:	0000dcec 	.word	0x0000dcec
    90ac:	0000d558 	.word	0x0000d558
    90b0:	0000d658 	.word	0x0000d658
    90b4:	0000f830 	.word	0x0000f830
    90b8:	0000d86c 	.word	0x0000d86c
    90bc:	000001ca 	.word	0x000001ca
    90c0:	0000d824 	.word	0x0000d824
    90c4:	000001cd 	.word	0x000001cd
    90c8:	0000f810 	.word	0x0000f810
    90cc:	0000d510 	.word	0x0000d510
    90d0:	0000d888 	.word	0x0000d888
    90d4:	0000d8b0 	.word	0x0000d8b0
    90d8:	0000d8f8 	.word	0x0000d8f8
    90dc:	0000d938 	.word	0x0000d938
    90e0:	000001f3 	.word	0x000001f3
    90e4:	0000d95c 	.word	0x0000d95c
    90e8:	0000f84c 	.word	0x0000f84c
    90ec:	0000d9a0 	.word	0x0000d9a0
    90f0:	0000d9b8 	.word	0x0000d9b8
    90f4:	0000020a 	.word	0x0000020a
    90f8:	0000d9c8 	.word	0x0000d9c8

000090fc <eqx_regs_init>:
    90fc:	e92d4030 	push	{r4, r5, lr}
    9100:	e24dd04c 	sub	sp, sp, #76, 0	; 0x4c
    9104:	e1a04000 	mov	r4, r0
    9108:	e10f3000 	mrs	r3, CPSR
    910c:	e3c3320f 	bic	r3, r3, #-268435456	; 0xf0000000
    9110:	e3c3301f 	bic	r3, r3, #31, 0
    9114:	e3835010 	orr	r5, r3, #16, 0
    9118:	e3a02030 	mov	r2, #48, 0	; 0x30
    911c:	e3a01000 	mov	r1, #0, 0
    9120:	e28d0008 	add	r0, sp, #8, 0
    9124:	eb000e4c 	bl	ca5c <memset>
    9128:	e5943058 	ldr	r3, [r4, #88]	; 0x58
    912c:	e58d3004 	str	r3, [sp, #4]
    9130:	e5943060 	ldr	r3, [r4, #96]	; 0x60
    9134:	e58d3038 	str	r3, [sp, #56]	; 0x38
    9138:	e59f304c 	ldr	r3, [pc, #76]	; 918c <eqx_regs_init+0x90>
    913c:	e58d303c 	str	r3, [sp, #60]	; 0x3c
    9140:	e5943054 	ldr	r3, [r4, #84]	; 0x54
    9144:	e58d3040 	str	r3, [sp, #64]	; 0x40
    9148:	e58d5044 	str	r5, [sp, #68]	; 0x44
    914c:	e3a02044 	mov	r2, #68, 0	; 0x44
    9150:	e28d1004 	add	r1, sp, #4, 0
    9154:	e1a00004 	mov	r0, r4
    9158:	eb000e14 	bl	c9b0 <memcpy>
    915c:	e1a00004 	mov	r0, r4
    9160:	ebfffd9b 	bl	87d4 <eqx_check_sp>
    9164:	e3500000 	cmp	r0, #0, 0
    9168:	0a000001 	beq	9174 <eqx_regs_init+0x78>
    916c:	e28dd04c 	add	sp, sp, #76, 0	; 0x4c
    9170:	e8bd8030 	pop	{r4, r5, pc}
    9174:	e3a03088 	mov	r3, #136, 0	; 0x88
    9178:	e59f2010 	ldr	r2, [pc, #16]	; 9190 <eqx_regs_init+0x94>
    917c:	e59f1010 	ldr	r1, [pc, #16]	; 9194 <eqx_regs_init+0x98>
    9180:	e59f0010 	ldr	r0, [pc, #16]	; 9198 <eqx_regs_init+0x9c>
    9184:	eb000e5c 	bl	cafc <printk>
    9188:	eb000f8b 	bl	cfbc <clean_reboot>
    918c:	00008120 	.word	0x00008120
    9190:	0000dd04 	.word	0x0000dd04
    9194:	0000d558 	.word	0x0000d558
    9198:	0000d9f4 	.word	0x0000d9f4

0000919c <eqx_verbose>:
    919c:	e59f3004 	ldr	r3, [pc, #4]	; 91a8 <eqx_verbose+0xc>
    91a0:	e5830014 	str	r0, [r3, #20]
    91a4:	e12fff1e 	bx	lr
    91a8:	0000f810 	.word	0x0000f810

000091ac <eqx_fork_stack>:
    91ac:	e92d41f0 	push	{r4, r5, r6, r7, r8, lr}
    91b0:	e24dd008 	sub	sp, sp, #8, 0
    91b4:	e1a08000 	mov	r8, r0
    91b8:	e1a07001 	mov	r7, r1
    91bc:	e1a06002 	mov	r6, r2
    91c0:	e1a05003 	mov	r5, r3
    91c4:	e3a00074 	mov	r0, #116, 0	; 0x74
    91c8:	eb000d00 	bl	c5d0 <kmalloc>
    91cc:	e5808054 	str	r8, [r0, #84]	; 0x54
    91d0:	e5807058 	str	r7, [r0, #88]	; 0x58
    91d4:	e5806048 	str	r6, [r0, #72]	; 0x48
    91d8:	e59f3084 	ldr	r3, [pc, #132]	; 9264 <eqx_fork_stack+0xb8>
    91dc:	e5932018 	ldr	r2, [r3, #24]
    91e0:	e2821001 	add	r1, r2, #1, 0
    91e4:	e5831018 	str	r1, [r3, #24]
    91e8:	e5802050 	str	r2, [r0, #80]	; 0x50
    91ec:	e5933014 	ldr	r3, [r3, #20]
    91f0:	e5803070 	str	r3, [r0, #112]	; 0x70
    91f4:	e580505c 	str	r5, [r0, #92]	; 0x5c
    91f8:	e59d3020 	ldr	r3, [sp, #32]
    91fc:	e0853003 	add	r3, r5, r3
    9200:	e5803060 	str	r3, [r0, #96]	; 0x60
    9204:	e2133007 	ands	r3, r3, #7, 0
    9208:	1a00000b 	bne	923c <eqx_fork_stack+0x90>
    920c:	e1a04000 	mov	r4, r0
    9210:	ebffffb9 	bl	90fc <eqx_regs_init>
    9214:	e59f304c 	ldr	r3, [pc, #76]	; 9268 <eqx_fork_stack+0xbc>
    9218:	e5932008 	ldr	r2, [r3, #8]
    921c:	e5842044 	str	r2, [r4, #68]	; 0x44
    9220:	e5834008 	str	r4, [r3, #8]
    9224:	e593300c 	ldr	r3, [r3, #12]
    9228:	e3530000 	cmp	r3, #0, 0
    922c:	0a000009 	beq	9258 <eqx_fork_stack+0xac>
    9230:	e1a00004 	mov	r0, r4
    9234:	e28dd008 	add	sp, sp, #8, 0
    9238:	e8bd81f0 	pop	{r4, r5, r6, r7, r8, pc}
    923c:	e58d3000 	str	r3, [sp]
    9240:	e3a030a7 	mov	r3, #167, 0	; 0xa7
    9244:	e59f2020 	ldr	r2, [pc, #32]	; 926c <eqx_fork_stack+0xc0>
    9248:	e59f1020 	ldr	r1, [pc, #32]	; 9270 <eqx_fork_stack+0xc4>
    924c:	e59f0020 	ldr	r0, [pc, #32]	; 9274 <eqx_fork_stack+0xc8>
    9250:	eb000e29 	bl	cafc <printk>
    9254:	eb000f58 	bl	cfbc <clean_reboot>
    9258:	e59f3008 	ldr	r3, [pc, #8]	; 9268 <eqx_fork_stack+0xbc>
    925c:	e583400c 	str	r4, [r3, #12]
    9260:	eafffff2 	b	9230 <eqx_fork_stack+0x84>
    9264:	0000f810 	.word	0x0000f810
    9268:	0000f830 	.word	0x0000f830
    926c:	0000dd14 	.word	0x0000dd14
    9270:	0000d558 	.word	0x0000d558
    9274:	0000da20 	.word	0x0000da20

00009278 <eqx_fork>:
    9278:	e92d4070 	push	{r4, r5, r6, lr}
    927c:	e24dd008 	sub	sp, sp, #8, 0
    9280:	e1a04000 	mov	r4, r0
    9284:	e1a05001 	mov	r5, r1
    9288:	e1a06002 	mov	r6, r2
    928c:	e3a01008 	mov	r1, #8, 0
    9290:	e3a00801 	mov	r0, #65536	; 0x10000
    9294:	eb000ce6 	bl	c634 <kmalloc_aligned>
    9298:	e3100007 	tst	r0, #7, 0
    929c:	1a000008 	bne	92c4 <eqx_fork+0x4c>
    92a0:	e1a03000 	mov	r3, r0
    92a4:	e3a02801 	mov	r2, #65536	; 0x10000
    92a8:	e58d2000 	str	r2, [sp]
    92ac:	e1a02006 	mov	r2, r6
    92b0:	e1a01005 	mov	r1, r5
    92b4:	e1a00004 	mov	r0, r4
    92b8:	ebffffbb 	bl	91ac <eqx_fork_stack>
    92bc:	e28dd008 	add	sp, sp, #8, 0
    92c0:	e8bd8070 	pop	{r4, r5, r6, pc}
    92c4:	e59f3018 	ldr	r3, [pc, #24]	; 92e4 <eqx_fork+0x6c>
    92c8:	e58d3000 	str	r3, [sp]
    92cc:	e3a030b4 	mov	r3, #180, 0	; 0xb4
    92d0:	e59f2010 	ldr	r2, [pc, #16]	; 92e8 <eqx_fork+0x70>
    92d4:	e59f1010 	ldr	r1, [pc, #16]	; 92ec <eqx_fork+0x74>
    92d8:	e59f0010 	ldr	r0, [pc, #16]	; 92f0 <eqx_fork+0x78>
    92dc:	eb000e06 	bl	cafc <printk>
    92e0:	eb000f35 	bl	cfbc <clean_reboot>
    92e4:	0000da5c 	.word	0x0000da5c
    92e8:	0000dd24 	.word	0x0000dd24
    92ec:	0000d558 	.word	0x0000d558
    92f0:	0000d658 	.word	0x0000d658

000092f4 <eqx_fork_nostack>:
    92f4:	e52de004 	push	{lr}		; (str lr, [sp, #-4]!)
    92f8:	e24dd00c 	sub	sp, sp, #12, 0
    92fc:	e3a03000 	mov	r3, #0, 0
    9300:	e58d3000 	str	r3, [sp]
    9304:	ebffffa8 	bl	91ac <eqx_fork_stack>
    9308:	e28dd00c 	add	sp, sp, #12, 0
    930c:	e49df004 	pop	{pc}		; (ldr pc, [sp], #4)

00009310 <eqx_refork>:
    9310:	e92d4010 	push	{r4, lr}
    9314:	e24dd008 	sub	sp, sp, #8, 0
    9318:	e5903048 	ldr	r3, [r0, #72]	; 0x48
    931c:	e3530000 	cmp	r3, #0, 0
    9320:	0a000010 	beq	9368 <eqx_refork+0x58>
    9324:	e1a04000 	mov	r4, r0
    9328:	ebffff73 	bl	90fc <eqx_regs_init>
    932c:	e3a02000 	mov	r2, #0, 0
    9330:	e5842068 	str	r2, [r4, #104]	; 0x68
    9334:	e584206c 	str	r2, [r4, #108]	; 0x6c
    9338:	e584204c 	str	r2, [r4, #76]	; 0x4c
    933c:	e59f3050 	ldr	r3, [pc, #80]	; 9394 <eqx_refork+0x84>
    9340:	e5832004 	str	r2, [r3, #4]
    9344:	e5832014 	str	r2, [r3, #20]
    9348:	e5932008 	ldr	r2, [r3, #8]
    934c:	e5842044 	str	r2, [r4, #68]	; 0x44
    9350:	e5834008 	str	r4, [r3, #8]
    9354:	e593300c 	ldr	r3, [r3, #12]
    9358:	e3530000 	cmp	r3, #0, 0
    935c:	0a000009 	beq	9388 <eqx_refork+0x78>
    9360:	e28dd008 	add	sp, sp, #8, 0
    9364:	e8bd8010 	pop	{r4, pc}
    9368:	e59f3028 	ldr	r3, [pc, #40]	; 9398 <eqx_refork+0x88>
    936c:	e58d3000 	str	r3, [sp]
    9370:	e3a030cb 	mov	r3, #203, 0	; 0xcb
    9374:	e59f2020 	ldr	r2, [pc, #32]	; 939c <eqx_refork+0x8c>
    9378:	e59f1020 	ldr	r1, [pc, #32]	; 93a0 <eqx_refork+0x90>
    937c:	e59f0020 	ldr	r0, [pc, #32]	; 93a4 <eqx_refork+0x94>
    9380:	eb000ddd 	bl	cafc <printk>
    9384:	eb000f0c 	bl	cfbc <clean_reboot>
    9388:	e59f3004 	ldr	r3, [pc, #4]	; 9394 <eqx_refork+0x84>
    938c:	e583400c 	str	r4, [r3, #12]
    9390:	eafffff2 	b	9360 <eqx_refork+0x50>
    9394:	0000f830 	.word	0x0000f830
    9398:	0000da74 	.word	0x0000da74
    939c:	0000dd30 	.word	0x0000dd30
    93a0:	0000d558 	.word	0x0000d558
    93a4:	0000d658 	.word	0x0000d658

000093a8 <eqx_init_w_vm>:
    93a8:	e92d4070 	push	{r4, r5, r6, lr}
    93ac:	e24dd050 	sub	sp, sp, #80, 0	; 0x50
    93b0:	e59f3550 	ldr	r3, [pc, #1360]	; 9908 <eqx_init_w_vm+0x560>
    93b4:	e5933060 	ldr	r3, [r3, #96]	; 0x60
    93b8:	e3530000 	cmp	r3, #0, 0
    93bc:	1a0000b7 	bne	96a0 <eqx_init_w_vm+0x2f8>
    93c0:	e1a06000 	mov	r6, r0
    93c4:	e59f353c 	ldr	r3, [pc, #1340]	; 9908 <eqx_init_w_vm+0x560>
    93c8:	e3a02001 	mov	r2, #1, 0
    93cc:	e5832060 	str	r2, [r3, #96]	; 0x60
    93d0:	e3a01602 	mov	r1, #2097152	; 0x200000
    93d4:	e3a00601 	mov	r0, #1048576	; 0x100000
    93d8:	eb000c03 	bl	c3ec <kmalloc_init_set_start>
    93dc:	e3a00000 	mov	r0, #0, 0
    93e0:	eb0003b6 	bl	a2c0 <full_except_install>
    93e4:	eb000a6d 	bl	bda0 <mmu_is_enabled>
    93e8:	e3500000 	cmp	r0, #0, 0
    93ec:	1a0000b1 	bne	96b8 <eqx_init_w_vm+0x310>
    93f0:	e59f0514 	ldr	r0, [pc, #1300]	; 990c <eqx_init_w_vm+0x564>
    93f4:	eb00039f 	bl	a278 <full_except_set_prefetch>
    93f8:	e59f0510 	ldr	r0, [pc, #1296]	; 9910 <eqx_init_w_vm+0x568>
    93fc:	eb0003a9 	bl	a2a8 <full_except_set_syscall>
    9400:	e3a03001 	mov	r3, #1, 0
    9404:	e58d303c 	str	r3, [sp, #60]	; 0x3c
    9408:	e3a02000 	mov	r2, #0, 0
    940c:	e58d2040 	str	r2, [sp, #64]	; 0x40
    9410:	e58d3044 	str	r3, [sp, #68]	; 0x44
    9414:	e3a01003 	mov	r1, #3, 0
    9418:	e58d1048 	str	r1, [sp, #72]	; 0x48
    941c:	e5cd304c 	strb	r3, [sp, #76]	; 0x4c
    9420:	e5cd204d 	strb	r2, [sp, #77]	; 0x4d
    9424:	e58d3028 	str	r3, [sp, #40]	; 0x28
    9428:	e58d202c 	str	r2, [sp, #44]	; 0x2c
    942c:	e58d3030 	str	r3, [sp, #48]	; 0x30
    9430:	e58d1034 	str	r1, [sp, #52]	; 0x34
    9434:	e5cd3038 	strb	r3, [sp, #56]	; 0x38
    9438:	e3a03004 	mov	r3, #4, 0
    943c:	e5cd3039 	strb	r3, [sp, #57]	; 0x39
    9440:	e3a00a01 	mov	r0, #4096	; 0x1000
    9444:	eb00087f 	bl	b648 <vm_pt_alloc>
    9448:	e59f34b8 	ldr	r3, [pc, #1208]	; 9908 <eqx_init_w_vm+0x560>
    944c:	e5830064 	str	r0, [r3, #100]	; 0x64
    9450:	e3e00000 	mvn	r0, #0, 0
    9454:	eb0008fe 	bl	b854 <vm_mmu_init>
    9458:	eb000a50 	bl	bda0 <mmu_is_enabled>
    945c:	e3500000 	cmp	r0, #0, 0
    9460:	1a00009c 	bne	96d8 <eqx_init_w_vm+0x330>
    9464:	e59f549c 	ldr	r5, [pc, #1180]	; 9908 <eqx_init_w_vm+0x560>
    9468:	e28d402c 	add	r4, sp, #44, 0	; 0x2c
    946c:	e894000f 	ldm	r4, {r0, r1, r2, r3}
    9470:	e88d000f 	stm	sp, {r0, r1, r2, r3}
    9474:	e59d3028 	ldr	r3, [sp, #40]	; 0x28
    9478:	e3a02000 	mov	r2, #0, 0
    947c:	e1a01002 	mov	r1, r2
    9480:	e5950064 	ldr	r0, [r5, #100]	; 0x64
    9484:	eb0008f8 	bl	b86c <vm_map_sec>
    9488:	e894000f 	ldm	r4, {r0, r1, r2, r3}
    948c:	e88d000f 	stm	sp, {r0, r1, r2, r3}
    9490:	e59d3028 	ldr	r3, [sp, #40]	; 0x28
    9494:	e3a02601 	mov	r2, #1048576	; 0x100000
    9498:	e1a01002 	mov	r1, r2
    949c:	e5950064 	ldr	r0, [r5, #100]	; 0x64
    94a0:	eb0008f1 	bl	b86c <vm_map_sec>
    94a4:	e894000f 	ldm	r4, {r0, r1, r2, r3}
    94a8:	e88d000f 	stm	sp, {r0, r1, r2, r3}
    94ac:	e59d3028 	ldr	r3, [sp, #40]	; 0x28
    94b0:	e3a0267f 	mov	r2, #133169152	; 0x7f00000
    94b4:	e1a01002 	mov	r1, r2
    94b8:	e5950064 	ldr	r0, [r5, #100]	; 0x64
    94bc:	eb0008ea 	bl	b86c <vm_map_sec>
    94c0:	e894000f 	ldm	r4, {r0, r1, r2, r3}
    94c4:	e88d000f 	stm	sp, {r0, r1, r2, r3}
    94c8:	e59d3028 	ldr	r3, [sp, #40]	; 0x28
    94cc:	e3a0268f 	mov	r2, #149946368	; 0x8f00000
    94d0:	e1a01002 	mov	r1, r2
    94d4:	e5950064 	ldr	r0, [r5, #100]	; 0x64
    94d8:	eb0008e3 	bl	b86c <vm_map_sec>
    94dc:	e28d4040 	add	r4, sp, #64, 0	; 0x40
    94e0:	e894000f 	ldm	r4, {r0, r1, r2, r3}
    94e4:	e88d000f 	stm	sp, {r0, r1, r2, r3}
    94e8:	e59d303c 	ldr	r3, [sp, #60]	; 0x3c
    94ec:	e3a02202 	mov	r2, #536870912	; 0x20000000
    94f0:	e1a01002 	mov	r1, r2
    94f4:	e5950064 	ldr	r0, [r5, #100]	; 0x64
    94f8:	eb0008db 	bl	b86c <vm_map_sec>
    94fc:	e59fc410 	ldr	ip, [pc, #1040]	; 9914 <eqx_init_w_vm+0x56c>
    9500:	e894000f 	ldm	r4, {r0, r1, r2, r3}
    9504:	e88d000f 	stm	sp, {r0, r1, r2, r3}
    9508:	e59d303c 	ldr	r3, [sp, #60]	; 0x3c
    950c:	e1a0200c 	mov	r2, ip
    9510:	e1a0100c 	mov	r1, ip
    9514:	e5950064 	ldr	r0, [r5, #100]	; 0x64
    9518:	eb0008d3 	bl	b86c <vm_map_sec>
    951c:	e59fc3f4 	ldr	ip, [pc, #1012]	; 9918 <eqx_init_w_vm+0x570>
    9520:	e894000f 	ldm	r4, {r0, r1, r2, r3}
    9524:	e88d000f 	stm	sp, {r0, r1, r2, r3}
    9528:	e59d303c 	ldr	r3, [sp, #60]	; 0x3c
    952c:	e1a0200c 	mov	r2, ip
    9530:	e1a0100c 	mov	r1, ip
    9534:	e5950064 	ldr	r0, [r5, #100]	; 0x64
    9538:	eb0008cb 	bl	b86c <vm_map_sec>
    953c:	e3a04001 	mov	r4, #1, 0
    9540:	e58d4018 	str	r4, [sp, #24]
    9544:	e3a03002 	mov	r3, #2, 0
    9548:	e58d301c 	str	r3, [sp, #28]
    954c:	e3a03003 	mov	r3, #3, 0
    9550:	e58d3020 	str	r3, [sp, #32]
    9554:	e5cd3024 	strb	r3, [sp, #36]	; 0x24
    9558:	e3a03004 	mov	r3, #4, 0
    955c:	e5cd3025 	strb	r3, [sp, #37]	; 0x25
    9560:	e28d3018 	add	r3, sp, #24, 0
    9564:	e893000f 	ldm	r3, {r0, r1, r2, r3}
    9568:	e88d000f 	stm	sp, {r0, r1, r2, r3}
    956c:	e3a03000 	mov	r3, #0, 0
    9570:	e3a02602 	mov	r2, #2097152	; 0x200000
    9574:	e3a01601 	mov	r1, #1048576	; 0x100000
    9578:	e5950064 	ldr	r0, [r5, #100]	; 0x64
    957c:	eb0008ba 	bl	b86c <vm_map_sec>
    9580:	e1a02004 	mov	r2, r4
    9584:	e59f1390 	ldr	r1, [pc, #912]	; 991c <eqx_init_w_vm+0x574>
    9588:	e5950064 	ldr	r0, [r5, #100]	; 0x64
    958c:	eb00089a 	bl	b7fc <vm_mmu_switch>
    9590:	eb000a02 	bl	bda0 <mmu_is_enabled>
    9594:	e2504000 	subs	r4, r0, #0, 0
    9598:	1a000056 	bne	96f8 <eqx_init_w_vm+0x350>
    959c:	eb000856 	bl	b6fc <vm_mmu_enable>
    95a0:	eb0009fe 	bl	bda0 <mmu_is_enabled>
    95a4:	e3500000 	cmp	r0, #0, 0
    95a8:	0a00005a 	beq	9718 <eqx_init_w_vm+0x370>
    95ac:	e3560000 	cmp	r6, #0, 0
    95b0:	0a00002f 	beq	9674 <eqx_init_w_vm+0x2cc>
    95b4:	eb0009f9 	bl	bda0 <mmu_is_enabled>
    95b8:	e3500000 	cmp	r0, #0, 0
    95bc:	0a00005d 	beq	9738 <eqx_init_w_vm+0x390>
    95c0:	eb0009f3 	bl	bd94 <cp15_ctrl_reg1_rd>
    95c4:	e3800a01 	orr	r0, r0, #4096	; 0x1000
    95c8:	ebfffc0c 	bl	8600 <cp15_ctrl_reg1_wr>
    95cc:	eb0009f0 	bl	bd94 <cp15_ctrl_reg1_rd>
    95d0:	e3100a01 	tst	r0, #4096	; 0x1000
    95d4:	0a00005f 	beq	9758 <eqx_init_w_vm+0x3b0>
    95d8:	eb0009f0 	bl	bda0 <mmu_is_enabled>
    95dc:	e3500000 	cmp	r0, #0, 0
    95e0:	0a000064 	beq	9778 <eqx_init_w_vm+0x3d0>
    95e4:	eb0009ea 	bl	bd94 <cp15_ctrl_reg1_rd>
    95e8:	e3800b02 	orr	r0, r0, #2048	; 0x800
    95ec:	ebfffc03 	bl	8600 <cp15_ctrl_reg1_wr>
    95f0:	eb0009e7 	bl	bd94 <cp15_ctrl_reg1_rd>
    95f4:	e3100b02 	tst	r0, #2048	; 0x800
    95f8:	0a000066 	beq	9798 <eqx_init_w_vm+0x3f0>
    95fc:	eb0009e7 	bl	bda0 <mmu_is_enabled>
    9600:	e3500000 	cmp	r0, #0, 0
    9604:	0a00006b 	beq	97b8 <eqx_init_w_vm+0x410>
    9608:	eb0009e1 	bl	bd94 <cp15_ctrl_reg1_rd>
    960c:	e3800004 	orr	r0, r0, #4, 0
    9610:	ebfffbfa 	bl	8600 <cp15_ctrl_reg1_wr>
    9614:	eb0009de 	bl	bd94 <cp15_ctrl_reg1_rd>
    9618:	e3100004 	tst	r0, #4, 0
    961c:	0a00006d 	beq	97d8 <eqx_init_w_vm+0x430>
    9620:	eb0009de 	bl	bda0 <mmu_is_enabled>
    9624:	e3500000 	cmp	r0, #0, 0
    9628:	0a000072 	beq	97f8 <eqx_init_w_vm+0x450>
    962c:	eb0009d8 	bl	bd94 <cp15_ctrl_reg1_rd>
    9630:	e3800008 	orr	r0, r0, #8, 0
    9634:	ebfffbf1 	bl	8600 <cp15_ctrl_reg1_wr>
    9638:	eb0009d5 	bl	bd94 <cp15_ctrl_reg1_rd>
    963c:	e3100008 	tst	r0, #8, 0
    9640:	0a000074 	beq	9818 <eqx_init_w_vm+0x470>
    9644:	eb0009d2 	bl	bd94 <cp15_ctrl_reg1_rd>
    9648:	e3100b02 	tst	r0, #2048	; 0x800
    964c:	1a000079 	bne	9838 <eqx_init_w_vm+0x490>
    9650:	e1a05004 	mov	r5, r4
    9654:	e3550000 	cmp	r5, #0, 0
    9658:	0a000084 	beq	9870 <eqx_init_w_vm+0x4c8>
    965c:	eb0009cc 	bl	bd94 <cp15_ctrl_reg1_rd>
    9660:	e3100b02 	tst	r0, #2048	; 0x800
    9664:	1a000089 	bne	9890 <eqx_init_w_vm+0x4e8>
    9668:	e1a05004 	mov	r5, r4
    966c:	e3550000 	cmp	r5, #0, 0
    9670:	0a000092 	beq	98c0 <eqx_init_w_vm+0x518>
    9674:	eb0009c6 	bl	bd94 <cp15_ctrl_reg1_rd>
    9678:	e3100b02 	tst	r0, #2048	; 0x800
    967c:	1a000097 	bne	98e0 <eqx_init_w_vm+0x538>
    9680:	e1a01004 	mov	r1, r4
    9684:	e59f0294 	ldr	r0, [pc, #660]	; 9920 <eqx_init_w_vm+0x578>
    9688:	eb000d1b 	bl	cafc <printk>
    968c:	e59f3274 	ldr	r3, [pc, #628]	; 9908 <eqx_init_w_vm+0x560>
    9690:	e3a02001 	mov	r2, #1, 0
    9694:	e5832010 	str	r2, [r3, #16]
    9698:	e28dd050 	add	sp, sp, #80, 0	; 0x50
    969c:	e8bd8070 	pop	{r4, r5, r6, pc}
    96a0:	e59f327c 	ldr	r3, [pc, #636]	; 9924 <eqx_init_w_vm+0x57c>
    96a4:	e59f227c 	ldr	r2, [pc, #636]	; 9928 <eqx_init_w_vm+0x580>
    96a8:	e59f127c 	ldr	r1, [pc, #636]	; 992c <eqx_init_w_vm+0x584>
    96ac:	e59f027c 	ldr	r0, [pc, #636]	; 9930 <eqx_init_w_vm+0x588>
    96b0:	eb000d11 	bl	cafc <printk>
    96b4:	eb000e40 	bl	cfbc <clean_reboot>
    96b8:	e59f3274 	ldr	r3, [pc, #628]	; 9934 <eqx_init_w_vm+0x58c>
    96bc:	e58d3000 	str	r3, [sp]
    96c0:	e3a03f87 	mov	r3, #540	; 0x21c
    96c4:	e59f225c 	ldr	r2, [pc, #604]	; 9928 <eqx_init_w_vm+0x580>
    96c8:	e59f125c 	ldr	r1, [pc, #604]	; 992c <eqx_init_w_vm+0x584>
    96cc:	e59f0264 	ldr	r0, [pc, #612]	; 9938 <eqx_init_w_vm+0x590>
    96d0:	eb000d09 	bl	cafc <printk>
    96d4:	eb000e38 	bl	cfbc <clean_reboot>
    96d8:	e59f3254 	ldr	r3, [pc, #596]	; 9934 <eqx_init_w_vm+0x58c>
    96dc:	e58d3000 	str	r3, [sp]
    96e0:	e59f3254 	ldr	r3, [pc, #596]	; 993c <eqx_init_w_vm+0x594>
    96e4:	e59f223c 	ldr	r2, [pc, #572]	; 9928 <eqx_init_w_vm+0x580>
    96e8:	e59f123c 	ldr	r1, [pc, #572]	; 992c <eqx_init_w_vm+0x584>
    96ec:	e59f0244 	ldr	r0, [pc, #580]	; 9938 <eqx_init_w_vm+0x590>
    96f0:	eb000d01 	bl	cafc <printk>
    96f4:	eb000e30 	bl	cfbc <clean_reboot>
    96f8:	e59f3234 	ldr	r3, [pc, #564]	; 9934 <eqx_init_w_vm+0x58c>
    96fc:	e58d3000 	str	r3, [sp]
    9700:	e59f3238 	ldr	r3, [pc, #568]	; 9940 <eqx_init_w_vm+0x598>
    9704:	e59f221c 	ldr	r2, [pc, #540]	; 9928 <eqx_init_w_vm+0x580>
    9708:	e59f121c 	ldr	r1, [pc, #540]	; 992c <eqx_init_w_vm+0x584>
    970c:	e59f0224 	ldr	r0, [pc, #548]	; 9938 <eqx_init_w_vm+0x590>
    9710:	eb000cf9 	bl	cafc <printk>
    9714:	eb000e28 	bl	cfbc <clean_reboot>
    9718:	e59f3224 	ldr	r3, [pc, #548]	; 9944 <eqx_init_w_vm+0x59c>
    971c:	e58d3000 	str	r3, [sp]
    9720:	e59f3220 	ldr	r3, [pc, #544]	; 9948 <eqx_init_w_vm+0x5a0>
    9724:	e59f21fc 	ldr	r2, [pc, #508]	; 9928 <eqx_init_w_vm+0x580>
    9728:	e59f11fc 	ldr	r1, [pc, #508]	; 992c <eqx_init_w_vm+0x584>
    972c:	e59f0204 	ldr	r0, [pc, #516]	; 9938 <eqx_init_w_vm+0x590>
    9730:	eb000cf1 	bl	cafc <printk>
    9734:	eb000e20 	bl	cfbc <clean_reboot>
    9738:	e59f3204 	ldr	r3, [pc, #516]	; 9944 <eqx_init_w_vm+0x59c>
    973c:	e58d3000 	str	r3, [sp]
    9740:	e3a03079 	mov	r3, #121, 0	; 0x79
    9744:	e59f2200 	ldr	r2, [pc, #512]	; 994c <eqx_init_w_vm+0x5a4>
    9748:	e59f1200 	ldr	r1, [pc, #512]	; 9950 <eqx_init_w_vm+0x5a8>
    974c:	e59f01e4 	ldr	r0, [pc, #484]	; 9938 <eqx_init_w_vm+0x590>
    9750:	eb000ce9 	bl	cafc <printk>
    9754:	eb000e18 	bl	cfbc <clean_reboot>
    9758:	e59f31f4 	ldr	r3, [pc, #500]	; 9954 <eqx_init_w_vm+0x5ac>
    975c:	e58d3000 	str	r3, [sp]
    9760:	e3a0306c 	mov	r3, #108, 0	; 0x6c
    9764:	e59f21ec 	ldr	r2, [pc, #492]	; 9958 <eqx_init_w_vm+0x5b0>
    9768:	e59f11e0 	ldr	r1, [pc, #480]	; 9950 <eqx_init_w_vm+0x5a8>
    976c:	e59f01c4 	ldr	r0, [pc, #452]	; 9938 <eqx_init_w_vm+0x590>
    9770:	eb000ce1 	bl	cafc <printk>
    9774:	eb000e10 	bl	cfbc <clean_reboot>
    9778:	e59f31c4 	ldr	r3, [pc, #452]	; 9944 <eqx_init_w_vm+0x59c>
    977c:	e58d3000 	str	r3, [sp]
    9780:	e3a0301a 	mov	r3, #26, 0
    9784:	e59f21d0 	ldr	r2, [pc, #464]	; 995c <eqx_init_w_vm+0x5b4>
    9788:	e59f11c0 	ldr	r1, [pc, #448]	; 9950 <eqx_init_w_vm+0x5a8>
    978c:	e59f01a4 	ldr	r0, [pc, #420]	; 9938 <eqx_init_w_vm+0x590>
    9790:	eb000cd9 	bl	cafc <printk>
    9794:	eb000e08 	bl	cfbc <clean_reboot>
    9798:	e59f31c0 	ldr	r3, [pc, #448]	; 9960 <eqx_init_w_vm+0x5b8>
    979c:	e58d3000 	str	r3, [sp]
    97a0:	e3a0301e 	mov	r3, #30, 0
    97a4:	e59f21b0 	ldr	r2, [pc, #432]	; 995c <eqx_init_w_vm+0x5b4>
    97a8:	e59f11a0 	ldr	r1, [pc, #416]	; 9950 <eqx_init_w_vm+0x5a8>
    97ac:	e59f0184 	ldr	r0, [pc, #388]	; 9938 <eqx_init_w_vm+0x590>
    97b0:	eb000cd1 	bl	cafc <printk>
    97b4:	eb000e00 	bl	cfbc <clean_reboot>
    97b8:	e59f3184 	ldr	r3, [pc, #388]	; 9944 <eqx_init_w_vm+0x59c>
    97bc:	e58d3000 	str	r3, [sp]
    97c0:	e3a03029 	mov	r3, #41, 0	; 0x29
    97c4:	e59f2198 	ldr	r2, [pc, #408]	; 9964 <eqx_init_w_vm+0x5bc>
    97c8:	e59f1180 	ldr	r1, [pc, #384]	; 9950 <eqx_init_w_vm+0x5a8>
    97cc:	e59f0164 	ldr	r0, [pc, #356]	; 9938 <eqx_init_w_vm+0x590>
    97d0:	eb000cc9 	bl	cafc <printk>
    97d4:	eb000df8 	bl	cfbc <clean_reboot>
    97d8:	e59f3188 	ldr	r3, [pc, #392]	; 9968 <eqx_init_w_vm+0x5c0>
    97dc:	e58d3000 	str	r3, [sp]
    97e0:	e3a0302e 	mov	r3, #46, 0	; 0x2e
    97e4:	e59f2178 	ldr	r2, [pc, #376]	; 9964 <eqx_init_w_vm+0x5bc>
    97e8:	e59f1160 	ldr	r1, [pc, #352]	; 9950 <eqx_init_w_vm+0x5a8>
    97ec:	e59f0144 	ldr	r0, [pc, #324]	; 9938 <eqx_init_w_vm+0x590>
    97f0:	eb000cc1 	bl	cafc <printk>
    97f4:	eb000df0 	bl	cfbc <clean_reboot>
    97f8:	e59f3144 	ldr	r3, [pc, #324]	; 9944 <eqx_init_w_vm+0x59c>
    97fc:	e58d3000 	str	r3, [sp]
    9800:	e3a0303a 	mov	r3, #58, 0	; 0x3a
    9804:	e59f2160 	ldr	r2, [pc, #352]	; 996c <eqx_init_w_vm+0x5c4>
    9808:	e59f1140 	ldr	r1, [pc, #320]	; 9950 <eqx_init_w_vm+0x5a8>
    980c:	e59f0124 	ldr	r0, [pc, #292]	; 9938 <eqx_init_w_vm+0x590>
    9810:	eb000cb9 	bl	cafc <printk>
    9814:	eb000de8 	bl	cfbc <clean_reboot>
    9818:	e59f3150 	ldr	r3, [pc, #336]	; 9970 <eqx_init_w_vm+0x5c8>
    981c:	e58d3000 	str	r3, [sp]
    9820:	e3a0303f 	mov	r3, #63, 0	; 0x3f
    9824:	e59f2140 	ldr	r2, [pc, #320]	; 996c <eqx_init_w_vm+0x5c4>
    9828:	e59f1120 	ldr	r1, [pc, #288]	; 9950 <eqx_init_w_vm+0x5a8>
    982c:	e59f0104 	ldr	r0, [pc, #260]	; 9938 <eqx_init_w_vm+0x590>
    9830:	eb000cb1 	bl	cafc <printk>
    9834:	eb000de0 	bl	cfbc <clean_reboot>
    9838:	eb000955 	bl	bd94 <cp15_ctrl_reg1_rd>
    983c:	e3100008 	tst	r0, #8, 0
    9840:	01a05004 	moveq	r5, r4
    9844:	0affff82 	beq	9654 <eqx_init_w_vm+0x2ac>
    9848:	eb000951 	bl	bd94 <cp15_ctrl_reg1_rd>
    984c:	e3100004 	tst	r0, #4, 0
    9850:	01a05004 	moveq	r5, r4
    9854:	0affff7e 	beq	9654 <eqx_init_w_vm+0x2ac>
    9858:	eb00094d 	bl	bd94 <cp15_ctrl_reg1_rd>
    985c:	e3100a01 	tst	r0, #4096	; 0x1000
    9860:	13a05001 	movne	r5, #1, 0
    9864:	1affff7a 	bne	9654 <eqx_init_w_vm+0x2ac>
    9868:	e1a05004 	mov	r5, r4
    986c:	eaffff78 	b	9654 <eqx_init_w_vm+0x2ac>
    9870:	e59f30fc 	ldr	r3, [pc, #252]	; 9974 <eqx_init_w_vm+0x5cc>
    9874:	e58d3000 	str	r3, [sp]
    9878:	e3a0308d 	mov	r3, #141, 0	; 0x8d
    987c:	e59f20c8 	ldr	r2, [pc, #200]	; 994c <eqx_init_w_vm+0x5a4>
    9880:	e59f10c8 	ldr	r1, [pc, #200]	; 9950 <eqx_init_w_vm+0x5a8>
    9884:	e59f00ac 	ldr	r0, [pc, #172]	; 9938 <eqx_init_w_vm+0x590>
    9888:	eb000c9b 	bl	cafc <printk>
    988c:	eb000dca 	bl	cfbc <clean_reboot>
    9890:	eb00093f 	bl	bd94 <cp15_ctrl_reg1_rd>
    9894:	e3100008 	tst	r0, #8, 0
    9898:	01a05004 	moveq	r5, r4
    989c:	0affff72 	beq	966c <eqx_init_w_vm+0x2c4>
    98a0:	eb00093b 	bl	bd94 <cp15_ctrl_reg1_rd>
    98a4:	e3100004 	tst	r0, #4, 0
    98a8:	01a05004 	moveq	r5, r4
    98ac:	0affff6e 	beq	966c <eqx_init_w_vm+0x2c4>
    98b0:	eb000937 	bl	bd94 <cp15_ctrl_reg1_rd>
    98b4:	e3100a01 	tst	r0, #4096	; 0x1000
    98b8:	01a05004 	moveq	r5, r4
    98bc:	eaffff6a 	b	966c <eqx_init_w_vm+0x2c4>
    98c0:	e59f30ac 	ldr	r3, [pc, #172]	; 9974 <eqx_init_w_vm+0x5cc>
    98c4:	e58d3000 	str	r3, [sp]
    98c8:	e59f30a8 	ldr	r3, [pc, #168]	; 9978 <eqx_init_w_vm+0x5d0>
    98cc:	e59f2054 	ldr	r2, [pc, #84]	; 9928 <eqx_init_w_vm+0x580>
    98d0:	e59f1054 	ldr	r1, [pc, #84]	; 992c <eqx_init_w_vm+0x584>
    98d4:	e59f005c 	ldr	r0, [pc, #92]	; 9938 <eqx_init_w_vm+0x590>
    98d8:	eb000c87 	bl	cafc <printk>
    98dc:	eb000db6 	bl	cfbc <clean_reboot>
    98e0:	eb00092b 	bl	bd94 <cp15_ctrl_reg1_rd>
    98e4:	e3100008 	tst	r0, #8, 0
    98e8:	0affff64 	beq	9680 <eqx_init_w_vm+0x2d8>
    98ec:	eb000928 	bl	bd94 <cp15_ctrl_reg1_rd>
    98f0:	e3100004 	tst	r0, #4, 0
    98f4:	0affff61 	beq	9680 <eqx_init_w_vm+0x2d8>
    98f8:	eb000925 	bl	bd94 <cp15_ctrl_reg1_rd>
    98fc:	e3100a01 	tst	r0, #4096	; 0x1000
    9900:	13a04001 	movne	r4, #1, 0
    9904:	eaffff5d 	b	9680 <eqx_init_w_vm+0x2d8>
    9908:	0000f830 	.word	0x0000f830
    990c:	00008be0 	.word	0x00008be0
    9910:	00008d64 	.word	0x00008d64
    9914:	20100000 	.word	0x20100000
    9918:	20200000 	.word	0x20200000
    991c:	0000140e 	.word	0x0000140e
    9920:	0000db3c 	.word	0x0000db3c
    9924:	00000216 	.word	0x00000216
    9928:	0000dd3c 	.word	0x0000dd3c
    992c:	0000d558 	.word	0x0000d558
    9930:	0000da88 	.word	0x0000da88
    9934:	0000daac 	.word	0x0000daac
    9938:	0000d658 	.word	0x0000d658
    993c:	00000229 	.word	0x00000229
    9940:	0000024b 	.word	0x0000024b
    9944:	0000dac0 	.word	0x0000dac0
    9948:	0000024d 	.word	0x0000024d
    994c:	0000dd4c 	.word	0x0000dd4c
    9950:	0000dad4 	.word	0x0000dad4
    9954:	0000dae4 	.word	0x0000dae4
    9958:	0000dd5c 	.word	0x0000dd5c
    995c:	0000dd68 	.word	0x0000dd68
    9960:	0000daf4 	.word	0x0000daf4
    9964:	0000dd70 	.word	0x0000dd70
    9968:	0000db00 	.word	0x0000db00
    996c:	0000dd80 	.word	0x0000dd80
    9970:	0000db14 	.word	0x0000db14
    9974:	0000db28 	.word	0x0000db28
    9978:	00000252 	.word	0x00000252

0000997c <eqx_init>:
    997c:	e92d4010 	push	{r4, lr}
    9980:	e59f3064 	ldr	r3, [pc, #100]	; 99ec <eqx_init+0x70>
    9984:	e5933060 	ldr	r3, [r3, #96]	; 0x60
    9988:	e3530000 	cmp	r3, #0, 0
    998c:	1a00000c 	bne	99c4 <eqx_init+0x48>
    9990:	e59f3054 	ldr	r3, [pc, #84]	; 99ec <eqx_init+0x70>
    9994:	e3a02001 	mov	r2, #1, 0
    9998:	e5832060 	str	r2, [r3, #96]	; 0x60
    999c:	eb000a8a 	bl	c3cc <kmalloc_heap_start>
    99a0:	e3500000 	cmp	r0, #0, 0
    99a4:	0a00000c 	beq	99dc <eqx_init+0x60>
    99a8:	e3a00000 	mov	r0, #0, 0
    99ac:	eb000243 	bl	a2c0 <full_except_install>
    99b0:	e59f0038 	ldr	r0, [pc, #56]	; 99f0 <eqx_init+0x74>
    99b4:	eb00022f 	bl	a278 <full_except_set_prefetch>
    99b8:	e59f0034 	ldr	r0, [pc, #52]	; 99f4 <eqx_init+0x78>
    99bc:	eb000239 	bl	a2a8 <full_except_set_syscall>
    99c0:	e8bd8010 	pop	{r4, pc}
    99c4:	e59f302c 	ldr	r3, [pc, #44]	; 99f8 <eqx_init+0x7c>
    99c8:	e59f202c 	ldr	r2, [pc, #44]	; 99fc <eqx_init+0x80>
    99cc:	e59f102c 	ldr	r1, [pc, #44]	; 9a00 <eqx_init+0x84>
    99d0:	e59f002c 	ldr	r0, [pc, #44]	; 9a04 <eqx_init+0x88>
    99d4:	eb000c48 	bl	cafc <printk>
    99d8:	eb000d77 	bl	cfbc <clean_reboot>
    99dc:	e3a01601 	mov	r1, #1048576	; 0x100000
    99e0:	e1a00001 	mov	r0, r1
    99e4:	eb000a80 	bl	c3ec <kmalloc_init_set_start>
    99e8:	eaffffee 	b	99a8 <eqx_init+0x2c>
    99ec:	0000f830 	.word	0x0000f830
    99f0:	00008be0 	.word	0x00008be0
    99f4:	00008d64 	.word	0x00008d64
    99f8:	00000262 	.word	0x00000262
    99fc:	0000dd90 	.word	0x0000dd90
    9a00:	0000d558 	.word	0x0000d558
    9a04:	0000da88 	.word	0x0000da88

00009a08 <eqx_run_threads>:
    9a08:	e92d4010 	push	{r4, lr}
    9a0c:	e24dd008 	sub	sp, sp, #8, 0
    9a10:	e59f3358 	ldr	r3, [pc, #856]	; 9d70 <eqx_run_threads+0x368>
    9a14:	e5933060 	ldr	r3, [r3, #96]	; 0x60
    9a18:	e3530000 	cmp	r3, #0, 0
    9a1c:	0a000050 	beq	9b64 <eqx_run_threads+0x15c>
    9a20:	e59f3348 	ldr	r3, [pc, #840]	; 9d70 <eqx_run_threads+0x368>
    9a24:	e3a02000 	mov	r2, #0, 0
    9a28:	e5832018 	str	r2, [r3, #24]
    9a2c:	e5933008 	ldr	r3, [r3, #8]
    9a30:	e1530002 	cmp	r3, r2
    9a34:	0a000050 	beq	9b7c <eqx_run_threads+0x174>
    9a38:	e5932044 	ldr	r2, [r3, #68]	; 0x44
    9a3c:	e59f132c 	ldr	r1, [pc, #812]	; 9d70 <eqx_run_threads+0x368>
    9a40:	e5812008 	str	r2, [r1, #8]
    9a44:	e3520000 	cmp	r2, #0, 0
    9a48:	0a000064 	beq	9be0 <eqx_run_threads+0x1d8>
    9a4c:	e59f231c 	ldr	r2, [pc, #796]	; 9d70 <eqx_run_threads+0x368>
    9a50:	e5823000 	str	r3, [r2]
    9a54:	e5923000 	ldr	r3, [r2]
    9a58:	e3530000 	cmp	r3, #0, 0
    9a5c:	0a000063 	beq	9bf0 <eqx_run_threads+0x1e8>
    9a60:	eb000a1d 	bl	c2dc <brkpt_mismatch_start>
    9a64:	e59f4304 	ldr	r4, [pc, #772]	; 9d70 <eqx_run_threads+0x368>
    9a68:	e5943000 	ldr	r3, [r4]
    9a6c:	e593003c 	ldr	r0, [r3, #60]	; 0x3c
    9a70:	eb0009e5 	bl	c20c <brkpt_mismatch_set>
    9a74:	e5941000 	ldr	r1, [r4]
    9a78:	e10f3000 	mrs	r3, CPSR
    9a7c:	e203301f 	and	r3, r3, #31, 0
    9a80:	e3530012 	cmp	r3, #18, 0
    9a84:	13530010 	cmpne	r3, #16, 0
    9a88:	0a000005 	beq	9aa4 <eqx_run_threads+0x9c>
    9a8c:	e3530017 	cmp	r3, #23, 0
    9a90:	13530013 	cmpne	r3, #19, 0
    9a94:	0a000002 	beq	9aa4 <eqx_run_threads+0x9c>
    9a98:	e353001f 	cmp	r3, #31, 0
    9a9c:	1353001b 	cmpne	r3, #27, 0
    9aa0:	1a000058 	bne	9c08 <eqx_run_threads+0x200>
    9aa4:	e3530010 	cmp	r3, #16, 0
    9aa8:	0a00005e 	beq	9c28 <eqx_run_threads+0x220>
    9aac:	e5913040 	ldr	r3, [r1, #64]	; 0x40
    9ab0:	e203301f 	and	r3, r3, #31, 0
    9ab4:	e3530012 	cmp	r3, #18, 0
    9ab8:	13530010 	cmpne	r3, #16, 0
    9abc:	0a000005 	beq	9ad8 <eqx_run_threads+0xd0>
    9ac0:	e3530017 	cmp	r3, #23, 0
    9ac4:	13530013 	cmpne	r3, #19, 0
    9ac8:	0a000002 	beq	9ad8 <eqx_run_threads+0xd0>
    9acc:	e353001f 	cmp	r3, #31, 0
    9ad0:	1353001b 	cmpne	r3, #27, 0
    9ad4:	1a00005b 	bne	9c48 <eqx_run_threads+0x240>
    9ad8:	e3530010 	cmp	r3, #16, 0
    9adc:	1a000061 	bne	9c68 <eqx_run_threads+0x260>
    9ae0:	e59f4288 	ldr	r4, [pc, #648]	; 9d70 <eqx_run_threads+0x368>
    9ae4:	e284001c 	add	r0, r4, #28, 0
    9ae8:	ebfffa1e 	bl	8368 <cswitchto_user_asm>
    9aec:	eb000a08 	bl	c314 <brkpt_mismatch_stop>
    9af0:	e5943008 	ldr	r3, [r4, #8]
    9af4:	e3530000 	cmp	r3, #0, 0
    9af8:	0a000060 	beq	9c80 <eqx_run_threads+0x278>
    9afc:	e5932044 	ldr	r2, [r3, #68]	; 0x44
    9b00:	e59f1268 	ldr	r1, [pc, #616]	; 9d70 <eqx_run_threads+0x368>
    9b04:	e5812008 	str	r2, [r1, #8]
    9b08:	e3520000 	cmp	r2, #0, 0
    9b0c:	0a000077 	beq	9cf0 <eqx_run_threads+0x2e8>
    9b10:	e59f2258 	ldr	r2, [pc, #600]	; 9d70 <eqx_run_threads+0x368>
    9b14:	e5823000 	str	r3, [r2]
    9b18:	e5923000 	ldr	r3, [r2]
    9b1c:	e3530000 	cmp	r3, #0, 0
    9b20:	1a000076 	bne	9d00 <eqx_run_threads+0x2f8>
    9b24:	e59f3244 	ldr	r3, [pc, #580]	; 9d70 <eqx_run_threads+0x368>
    9b28:	e5933008 	ldr	r3, [r3, #8]
    9b2c:	e3530000 	cmp	r3, #0, 0
    9b30:	1a000078 	bne	9d18 <eqx_run_threads+0x310>
    9b34:	e59f3234 	ldr	r3, [pc, #564]	; 9d70 <eqx_run_threads+0x368>
    9b38:	e593300c 	ldr	r3, [r3, #12]
    9b3c:	e3530000 	cmp	r3, #0, 0
    9b40:	1a00007c 	bne	9d38 <eqx_run_threads+0x330>
    9b44:	e59f3228 	ldr	r3, [pc, #552]	; 9d74 <eqx_run_threads+0x36c>
    9b48:	e5933014 	ldr	r3, [r3, #20]
    9b4c:	e3530000 	cmp	r3, #0, 0
    9b50:	1a000080 	bne	9d58 <eqx_run_threads+0x350>
    9b54:	e59f3214 	ldr	r3, [pc, #532]	; 9d70 <eqx_run_threads+0x368>
    9b58:	e5930018 	ldr	r0, [r3, #24]
    9b5c:	e28dd008 	add	sp, sp, #8, 0
    9b60:	e8bd8010 	pop	{r4, pc}
    9b64:	e59f320c 	ldr	r3, [pc, #524]	; 9d78 <eqx_run_threads+0x370>
    9b68:	e59f220c 	ldr	r2, [pc, #524]	; 9d7c <eqx_run_threads+0x374>
    9b6c:	e59f120c 	ldr	r1, [pc, #524]	; 9d80 <eqx_run_threads+0x378>
    9b70:	e59f020c 	ldr	r0, [pc, #524]	; 9d84 <eqx_run_threads+0x37c>
    9b74:	eb000be0 	bl	cafc <printk>
    9b78:	eb000d0f 	bl	cfbc <clean_reboot>
    9b7c:	0a00000a 	beq	9bac <eqx_run_threads+0x1a4>
    9b80:	e3a02000 	mov	r2, #0, 0
    9b84:	e3520000 	cmp	r2, #0, 0
    9b88:	1affffaf 	bne	9a4c <eqx_run_threads+0x44>
    9b8c:	e59f31f4 	ldr	r3, [pc, #500]	; 9d88 <eqx_run_threads+0x380>
    9b90:	e58d3000 	str	r3, [sp]
    9b94:	e3a03044 	mov	r3, #68, 0	; 0x44
    9b98:	e59f21ec 	ldr	r2, [pc, #492]	; 9d8c <eqx_run_threads+0x384>
    9b9c:	e59f11dc 	ldr	r1, [pc, #476]	; 9d80 <eqx_run_threads+0x378>
    9ba0:	e59f01e8 	ldr	r0, [pc, #488]	; 9d90 <eqx_run_threads+0x388>
    9ba4:	eb000bd4 	bl	cafc <printk>
    9ba8:	eb000d03 	bl	cfbc <clean_reboot>
    9bac:	e59f21bc 	ldr	r2, [pc, #444]	; 9d70 <eqx_run_threads+0x368>
    9bb0:	e592200c 	ldr	r2, [r2, #12]
    9bb4:	e3520000 	cmp	r2, #0, 0
    9bb8:	03a02001 	moveq	r2, #1, 0
    9bbc:	0afffff0 	beq	9b84 <eqx_run_threads+0x17c>
    9bc0:	e59f31cc 	ldr	r3, [pc, #460]	; 9d94 <eqx_run_threads+0x38c>
    9bc4:	e58d3000 	str	r3, [sp]
    9bc8:	e3a03044 	mov	r3, #68, 0	; 0x44
    9bcc:	e59f21c4 	ldr	r2, [pc, #452]	; 9d98 <eqx_run_threads+0x390>
    9bd0:	e59f11a8 	ldr	r1, [pc, #424]	; 9d80 <eqx_run_threads+0x378>
    9bd4:	e59f01c0 	ldr	r0, [pc, #448]	; 9d9c <eqx_run_threads+0x394>
    9bd8:	eb000bc7 	bl	cafc <printk>
    9bdc:	eb000cf6 	bl	cfbc <clean_reboot>
    9be0:	e1a02001 	mov	r2, r1
    9be4:	e3a01000 	mov	r1, #0, 0
    9be8:	e582100c 	str	r1, [r2, #12]
    9bec:	eaffff96 	b	9a4c <eqx_run_threads+0x44>
    9bf0:	e3a03d0a 	mov	r3, #640	; 0x280
    9bf4:	e59f2180 	ldr	r2, [pc, #384]	; 9d7c <eqx_run_threads+0x374>
    9bf8:	e59f1180 	ldr	r1, [pc, #384]	; 9d80 <eqx_run_threads+0x378>
    9bfc:	e59f019c 	ldr	r0, [pc, #412]	; 9da0 <eqx_run_threads+0x398>
    9c00:	eb000bbd 	bl	cafc <printk>
    9c04:	eb000cec 	bl	cfbc <clean_reboot>
    9c08:	e58d3004 	str	r3, [sp, #4]
    9c0c:	e58d3000 	str	r3, [sp]
    9c10:	e3a03013 	mov	r3, #19, 0
    9c14:	e59f2188 	ldr	r2, [pc, #392]	; 9da4 <eqx_run_threads+0x39c>
    9c18:	e59f1188 	ldr	r1, [pc, #392]	; 9da8 <eqx_run_threads+0x3a0>
    9c1c:	e59f0188 	ldr	r0, [pc, #392]	; 9dac <eqx_run_threads+0x3a4>
    9c20:	eb000bb5 	bl	cafc <printk>
    9c24:	eb000ce4 	bl	cfbc <clean_reboot>
    9c28:	e59f3180 	ldr	r3, [pc, #384]	; 9db0 <eqx_run_threads+0x3a8>
    9c2c:	e58d3000 	str	r3, [sp]
    9c30:	e3a03064 	mov	r3, #100, 0	; 0x64
    9c34:	e59f2178 	ldr	r2, [pc, #376]	; 9db4 <eqx_run_threads+0x3ac>
    9c38:	e59f1178 	ldr	r1, [pc, #376]	; 9db8 <eqx_run_threads+0x3b0>
    9c3c:	e59f014c 	ldr	r0, [pc, #332]	; 9d90 <eqx_run_threads+0x388>
    9c40:	eb000bad 	bl	cafc <printk>
    9c44:	eb000cdc 	bl	cfbc <clean_reboot>
    9c48:	e58d3004 	str	r3, [sp, #4]
    9c4c:	e58d3000 	str	r3, [sp]
    9c50:	e3a03013 	mov	r3, #19, 0
    9c54:	e59f2148 	ldr	r2, [pc, #328]	; 9da4 <eqx_run_threads+0x39c>
    9c58:	e59f1148 	ldr	r1, [pc, #328]	; 9da8 <eqx_run_threads+0x3a0>
    9c5c:	e59f0148 	ldr	r0, [pc, #328]	; 9dac <eqx_run_threads+0x3a4>
    9c60:	eb000ba5 	bl	cafc <printk>
    9c64:	eb000cd4 	bl	cfbc <clean_reboot>
    9c68:	e3a0306a 	mov	r3, #106, 0	; 0x6a
    9c6c:	e59f2140 	ldr	r2, [pc, #320]	; 9db4 <eqx_run_threads+0x3ac>
    9c70:	e59f1140 	ldr	r1, [pc, #320]	; 9db8 <eqx_run_threads+0x3b0>
    9c74:	e59f0140 	ldr	r0, [pc, #320]	; 9dbc <eqx_run_threads+0x3b4>
    9c78:	eb000b9f 	bl	cafc <printk>
    9c7c:	eb000cce 	bl	cfbc <clean_reboot>
    9c80:	e59f20e8 	ldr	r2, [pc, #232]	; 9d70 <eqx_run_threads+0x368>
    9c84:	e5922008 	ldr	r2, [r2, #8]
    9c88:	e3520000 	cmp	r2, #0, 0
    9c8c:	0a00000a 	beq	9cbc <eqx_run_threads+0x2b4>
    9c90:	e3a02000 	mov	r2, #0, 0
    9c94:	e3520000 	cmp	r2, #0, 0
    9c98:	1affff9c 	bne	9b10 <eqx_run_threads+0x108>
    9c9c:	e59f30e4 	ldr	r3, [pc, #228]	; 9d88 <eqx_run_threads+0x380>
    9ca0:	e58d3000 	str	r3, [sp]
    9ca4:	e3a03044 	mov	r3, #68, 0	; 0x44
    9ca8:	e59f20dc 	ldr	r2, [pc, #220]	; 9d8c <eqx_run_threads+0x384>
    9cac:	e59f10cc 	ldr	r1, [pc, #204]	; 9d80 <eqx_run_threads+0x378>
    9cb0:	e59f00d8 	ldr	r0, [pc, #216]	; 9d90 <eqx_run_threads+0x388>
    9cb4:	eb000b90 	bl	cafc <printk>
    9cb8:	eb000cbf 	bl	cfbc <clean_reboot>
    9cbc:	e59f20ac 	ldr	r2, [pc, #172]	; 9d70 <eqx_run_threads+0x368>
    9cc0:	e592200c 	ldr	r2, [r2, #12]
    9cc4:	e3520000 	cmp	r2, #0, 0
    9cc8:	03a02001 	moveq	r2, #1, 0
    9ccc:	0afffff0 	beq	9c94 <eqx_run_threads+0x28c>
    9cd0:	e59f30bc 	ldr	r3, [pc, #188]	; 9d94 <eqx_run_threads+0x38c>
    9cd4:	e58d3000 	str	r3, [sp]
    9cd8:	e3a03044 	mov	r3, #68, 0	; 0x44
    9cdc:	e59f20b4 	ldr	r2, [pc, #180]	; 9d98 <eqx_run_threads+0x390>
    9ce0:	e59f1098 	ldr	r1, [pc, #152]	; 9d80 <eqx_run_threads+0x378>
    9ce4:	e59f00b0 	ldr	r0, [pc, #176]	; 9d9c <eqx_run_threads+0x394>
    9ce8:	eb000b83 	bl	cafc <printk>
    9cec:	eb000cb2 	bl	cfbc <clean_reboot>
    9cf0:	e1a02001 	mov	r2, r1
    9cf4:	e3a01000 	mov	r1, #0, 0
    9cf8:	e582100c 	str	r1, [r2, #12]
    9cfc:	eaffff83 	b	9b10 <eqx_run_threads+0x108>
    9d00:	e3a03fa5 	mov	r3, #660	; 0x294
    9d04:	e59f2070 	ldr	r2, [pc, #112]	; 9d7c <eqx_run_threads+0x374>
    9d08:	e59f1070 	ldr	r1, [pc, #112]	; 9d80 <eqx_run_threads+0x378>
    9d0c:	e59f00ac 	ldr	r0, [pc, #172]	; 9dc0 <eqx_run_threads+0x3b8>
    9d10:	eb000b79 	bl	cafc <printk>
    9d14:	eb000ca8 	bl	cfbc <clean_reboot>
    9d18:	e59f30a4 	ldr	r3, [pc, #164]	; 9dc4 <eqx_run_threads+0x3bc>
    9d1c:	e58d3000 	str	r3, [sp]
    9d20:	e59f30a0 	ldr	r3, [pc, #160]	; 9dc8 <eqx_run_threads+0x3c0>
    9d24:	e59f2050 	ldr	r2, [pc, #80]	; 9d7c <eqx_run_threads+0x374>
    9d28:	e59f1050 	ldr	r1, [pc, #80]	; 9d80 <eqx_run_threads+0x378>
    9d2c:	e59f005c 	ldr	r0, [pc, #92]	; 9d90 <eqx_run_threads+0x388>
    9d30:	eb000b71 	bl	cafc <printk>
    9d34:	eb000ca0 	bl	cfbc <clean_reboot>
    9d38:	e59f308c 	ldr	r3, [pc, #140]	; 9dcc <eqx_run_threads+0x3c4>
    9d3c:	e58d3000 	str	r3, [sp]
    9d40:	e3a03fa6 	mov	r3, #664	; 0x298
    9d44:	e59f2030 	ldr	r2, [pc, #48]	; 9d7c <eqx_run_threads+0x374>
    9d48:	e59f1030 	ldr	r1, [pc, #48]	; 9d80 <eqx_run_threads+0x378>
    9d4c:	e59f003c 	ldr	r0, [pc, #60]	; 9d90 <eqx_run_threads+0x388>
    9d50:	eb000b69 	bl	cafc <printk>
    9d54:	eb000c98 	bl	cfbc <clean_reboot>
    9d58:	e59f101c 	ldr	r1, [pc, #28]	; 9d7c <eqx_run_threads+0x374>
    9d5c:	e59f006c 	ldr	r0, [pc, #108]	; 9dd0 <eqx_run_threads+0x3c8>
    9d60:	eb000b65 	bl	cafc <printk>
    9d64:	e59f0068 	ldr	r0, [pc, #104]	; 9dd4 <eqx_run_threads+0x3cc>
    9d68:	eb000b63 	bl	cafc <printk>
    9d6c:	eaffff78 	b	9b54 <eqx_run_threads+0x14c>
    9d70:	0000f830 	.word	0x0000f830
    9d74:	0000f810 	.word	0x0000f810
    9d78:	00000279 	.word	0x00000279
    9d7c:	0000dd9c 	.word	0x0000dd9c
    9d80:	0000d558 	.word	0x0000d558
    9d84:	0000db68 	.word	0x0000db68
    9d88:	0000d688 	.word	0x0000d688
    9d8c:	0000dc98 	.word	0x0000dc98
    9d90:	0000d658 	.word	0x0000d658
    9d94:	0000d64c 	.word	0x0000d64c
    9d98:	0000dca4 	.word	0x0000dca4
    9d9c:	0000d618 	.word	0x0000d618
    9da0:	0000db94 	.word	0x0000db94
    9da4:	0000dcb4 	.word	0x0000dcb4
    9da8:	0000d698 	.word	0x0000d698
    9dac:	0000d6dc 	.word	0x0000d6dc
    9db0:	0000dbc4 	.word	0x0000dbc4
    9db4:	0000ddac 	.word	0x0000ddac
    9db8:	0000dbb8 	.word	0x0000dbb8
    9dbc:	0000dbe8 	.word	0x0000dbe8
    9dc0:	0000dc10 	.word	0x0000dc10
    9dc4:	0000dc3c 	.word	0x0000dc3c
    9dc8:	00000297 	.word	0x00000297
    9dcc:	0000dc4c 	.word	0x0000dc4c
    9dd0:	0000d510 	.word	0x0000d510
    9dd4:	0000dc5c 	.word	0x0000dc5c

00009dd8 <set_scheduler_config>:
    9dd8:	e24dd010 	sub	sp, sp, #16, 0
    9ddc:	e52de004 	push	{lr}		; (str lr, [sp, #-4]!)
    9de0:	e24dd00c 	sub	sp, sp, #12, 0
    9de4:	e28dc00c 	add	ip, sp, #12, 0
    9de8:	e98c000f 	stmib	ip, {r0, r1, r2, r3}
    9dec:	e5dd3010 	ldrb	r3, [sp, #16]
    9df0:	e3530005 	cmp	r3, #5, 0
    9df4:	0a000009 	beq	9e20 <set_scheduler_config+0x48>
    9df8:	e59fc04c 	ldr	ip, [pc, #76]	; 9e4c <set_scheduler_config+0x74>
    9dfc:	e28de010 	add	lr, sp, #16, 0
    9e00:	e8be000f 	ldm	lr!, {r0, r1, r2, r3}
    9e04:	e8ac000f 	stmia	ip!, {r0, r1, r2, r3}
    9e08:	e59e3000 	ldr	r3, [lr]
    9e0c:	e58c3000 	str	r3, [ip]
    9e10:	e28dd00c 	add	sp, sp, #12, 0
    9e14:	e49de004 	pop	{lr}		; (ldr lr, [sp], #4)
    9e18:	e28dd010 	add	sp, sp, #16, 0
    9e1c:	e12fff1e 	bx	lr
    9e20:	e59d3018 	ldr	r3, [sp, #24]
    9e24:	e3530000 	cmp	r3, #0, 0
    9e28:	1afffff2 	bne	9df8 <set_scheduler_config+0x20>
    9e2c:	e59f301c 	ldr	r3, [pc, #28]	; 9e50 <set_scheduler_config+0x78>
    9e30:	e58d3000 	str	r3, [sp]
    9e34:	e59f3018 	ldr	r3, [pc, #24]	; 9e54 <set_scheduler_config+0x7c>
    9e38:	e59f2018 	ldr	r2, [pc, #24]	; 9e58 <set_scheduler_config+0x80>
    9e3c:	e59f1018 	ldr	r1, [pc, #24]	; 9e5c <set_scheduler_config+0x84>
    9e40:	e59f0018 	ldr	r0, [pc, #24]	; 9e60 <set_scheduler_config+0x88>
    9e44:	eb000b2c 	bl	cafc <printk>
    9e48:	eb000c5b 	bl	cfbc <clean_reboot>
    9e4c:	0000f810 	.word	0x0000f810
    9e50:	0000dc74 	.word	0x0000dc74
    9e54:	000002a1 	.word	0x000002a1
    9e58:	0000ddc0 	.word	0x0000ddc0
    9e5c:	0000d558 	.word	0x0000d558
    9e60:	0000d658 	.word	0x0000d658

00009e64 <thread_x_completed_before_yielding>:
    9e64:	e52de004 	push	{lr}		; (str lr, [sp, #-4]!)
    9e68:	e24dd00c 	sub	sp, sp, #12, 0
    9e6c:	e59f3068 	ldr	r3, [pc, #104]	; 9edc <thread_x_completed_before_yielding+0x78>
    9e70:	e5933008 	ldr	r3, [r3, #8]
    9e74:	e3530000 	cmp	r3, #0, 0
    9e78:	1a000007 	bne	9e9c <thread_x_completed_before_yielding+0x38>
    9e7c:	e59f3058 	ldr	r3, [pc, #88]	; 9edc <thread_x_completed_before_yielding+0x78>
    9e80:	e593300c 	ldr	r3, [r3, #12]
    9e84:	e3530000 	cmp	r3, #0, 0
    9e88:	1a00000b 	bne	9ebc <thread_x_completed_before_yielding+0x58>
    9e8c:	e59f3048 	ldr	r3, [pc, #72]	; 9edc <thread_x_completed_before_yielding+0x78>
    9e90:	e5930014 	ldr	r0, [r3, #20]
    9e94:	e28dd00c 	add	sp, sp, #12, 0
    9e98:	e49df004 	pop	{pc}		; (ldr pc, [sp], #4)
    9e9c:	e59f303c 	ldr	r3, [pc, #60]	; 9ee0 <thread_x_completed_before_yielding+0x7c>
    9ea0:	e58d3000 	str	r3, [sp]
    9ea4:	e59f3038 	ldr	r3, [pc, #56]	; 9ee4 <thread_x_completed_before_yielding+0x80>
    9ea8:	e59f2038 	ldr	r2, [pc, #56]	; 9ee8 <thread_x_completed_before_yielding+0x84>
    9eac:	e59f1038 	ldr	r1, [pc, #56]	; 9eec <thread_x_completed_before_yielding+0x88>
    9eb0:	e59f0038 	ldr	r0, [pc, #56]	; 9ef0 <thread_x_completed_before_yielding+0x8c>
    9eb4:	eb000b10 	bl	cafc <printk>
    9eb8:	eb000c3f 	bl	cfbc <clean_reboot>
    9ebc:	e59f3030 	ldr	r3, [pc, #48]	; 9ef4 <thread_x_completed_before_yielding+0x90>
    9ec0:	e58d3000 	str	r3, [sp]
    9ec4:	e3a03faa 	mov	r3, #680	; 0x2a8
    9ec8:	e59f2018 	ldr	r2, [pc, #24]	; 9ee8 <thread_x_completed_before_yielding+0x84>
    9ecc:	e59f1018 	ldr	r1, [pc, #24]	; 9eec <thread_x_completed_before_yielding+0x88>
    9ed0:	e59f0018 	ldr	r0, [pc, #24]	; 9ef0 <thread_x_completed_before_yielding+0x8c>
    9ed4:	eb000b08 	bl	cafc <printk>
    9ed8:	eb000c37 	bl	cfbc <clean_reboot>
    9edc:	0000f830 	.word	0x0000f830
    9ee0:	0000dc3c 	.word	0x0000dc3c
    9ee4:	000002a7 	.word	0x000002a7
    9ee8:	0000ddd8 	.word	0x0000ddd8
    9eec:	0000d558 	.word	0x0000d558
    9ef0:	0000d658 	.word	0x0000d658
    9ef4:	0000dc4c 	.word	0x0000dc4c

00009ef8 <mode_get>:
    9ef8:	e200001f 	and	r0, r0, #31, 0
    9efc:	e3500012 	cmp	r0, #18, 0
    9f00:	13500010 	cmpne	r0, #16, 0
    9f04:	012fff1e 	bxeq	lr
    9f08:	e3500017 	cmp	r0, #23, 0
    9f0c:	13500013 	cmpne	r0, #19, 0
    9f10:	012fff1e 	bxeq	lr
    9f14:	e350001f 	cmp	r0, #31, 0
    9f18:	1350001b 	cmpne	r0, #27, 0
    9f1c:	012fff1e 	bxeq	lr
    9f20:	e52de004 	push	{lr}		; (str lr, [sp, #-4]!)
    9f24:	e24dd00c 	sub	sp, sp, #12, 0
    9f28:	e58d0004 	str	r0, [sp, #4]
    9f2c:	e58d0000 	str	r0, [sp]
    9f30:	e3a03013 	mov	r3, #19, 0
    9f34:	e59f200c 	ldr	r2, [pc, #12]	; 9f48 <mode_get+0x50>
    9f38:	e59f100c 	ldr	r1, [pc, #12]	; 9f4c <mode_get+0x54>
    9f3c:	e59f000c 	ldr	r0, [pc, #12]	; 9f50 <mode_get+0x58>
    9f40:	eb000aed 	bl	cafc <printk>
    9f44:	eb000c1c 	bl	cfbc <clean_reboot>
    9f48:	0000e08c 	.word	0x0000e08c
    9f4c:	0000d698 	.word	0x0000d698
    9f50:	0000d6dc 	.word	0x0000d6dc

00009f54 <switchto>:
    9f54:	e92d4010 	push	{r4, lr}
    9f58:	e1a04000 	mov	r4, r0
    9f5c:	e5900040 	ldr	r0, [r0, #64]	; 0x40
    9f60:	ebffffe4 	bl	9ef8 <mode_get>
    9f64:	e3500010 	cmp	r0, #16, 0
    9f68:	0a000001 	beq	9f74 <switchto+0x20>
    9f6c:	e1a00004 	mov	r0, r4
    9f70:	ebfff8d0 	bl	82b8 <switchto_priv_asm>
    9f74:	e1a00004 	mov	r0, r4
    9f78:	ebfff8ca 	bl	82a8 <switchto_user_asm>

00009f7c <prefetch_abort_full_except>:
    9f7c:	e52de004 	push	{lr}		; (str lr, [sp, #-4]!)
    9f80:	e24dd00c 	sub	sp, sp, #12, 0
    9f84:	e5903040 	ldr	r3, [r0, #64]	; 0x40
    9f88:	e1530001 	cmp	r3, r1
    9f8c:	1a000016 	bne	9fec <prefetch_abort_full_except+0x70>
    9f90:	e1a04000 	mov	r4, r0
    9f94:	e1a05001 	mov	r5, r1
    9f98:	e590303c 	ldr	r3, [r0, #60]	; 0x3c
    9f9c:	e1530002 	cmp	r3, r2
    9fa0:	1a000019 	bne	a00c <prefetch_abort_full_except+0x90>
    9fa4:	e59f309c 	ldr	r3, [pc, #156]	; a048 <prefetch_abort_full_except+0xcc>
    9fa8:	e5933000 	ldr	r3, [r3]
    9fac:	e3530000 	cmp	r3, #0, 0
    9fb0:	0a00001d 	beq	a02c <prefetch_abort_full_except+0xb0>
    9fb4:	e1a00001 	mov	r0, r1
    9fb8:	ebffffce 	bl	9ef8 <mode_get>
    9fbc:	e3500010 	cmp	r0, #16, 0
    9fc0:	0a000003 	beq	9fd4 <prefetch_abort_full_except+0x58>
    9fc4:	e2842038 	add	r2, r4, #56, 0	; 0x38
    9fc8:	e2841034 	add	r1, r4, #52, 0	; 0x34
    9fcc:	e1a00005 	mov	r0, r5
    9fd0:	ebfff8a0 	bl	8258 <priv_get_sp_lr_asm>
    9fd4:	e59f306c 	ldr	r3, [pc, #108]	; a048 <prefetch_abort_full_except+0xcc>
    9fd8:	e5933000 	ldr	r3, [r3]
    9fdc:	e1a00004 	mov	r0, r4
    9fe0:	e12fff33 	blx	r3
    9fe4:	e1a00004 	mov	r0, r4
    9fe8:	ebffffd9 	bl	9f54 <switchto>
    9fec:	e59f3058 	ldr	r3, [pc, #88]	; a04c <prefetch_abort_full_except+0xd0>
    9ff0:	e58d3000 	str	r3, [sp]
    9ff4:	e3a03031 	mov	r3, #49, 0	; 0x31
    9ff8:	e59f2050 	ldr	r2, [pc, #80]	; a050 <prefetch_abort_full_except+0xd4>
    9ffc:	e59f1050 	ldr	r1, [pc, #80]	; a054 <prefetch_abort_full_except+0xd8>
    a000:	e59f0050 	ldr	r0, [pc, #80]	; a058 <prefetch_abort_full_except+0xdc>
    a004:	eb000abc 	bl	cafc <printk>
    a008:	eb000beb 	bl	cfbc <clean_reboot>
    a00c:	e59f3048 	ldr	r3, [pc, #72]	; a05c <prefetch_abort_full_except+0xe0>
    a010:	e58d3000 	str	r3, [sp]
    a014:	e3a03032 	mov	r3, #50, 0	; 0x32
    a018:	e59f2030 	ldr	r2, [pc, #48]	; a050 <prefetch_abort_full_except+0xd4>
    a01c:	e59f1030 	ldr	r1, [pc, #48]	; a054 <prefetch_abort_full_except+0xd8>
    a020:	e59f0030 	ldr	r0, [pc, #48]	; a058 <prefetch_abort_full_except+0xdc>
    a024:	eb000ab4 	bl	cafc <printk>
    a028:	eb000be3 	bl	cfbc <clean_reboot>
    a02c:	e58d2000 	str	r2, [sp]
    a030:	e3a03035 	mov	r3, #53, 0	; 0x35
    a034:	e59f2014 	ldr	r2, [pc, #20]	; a050 <prefetch_abort_full_except+0xd4>
    a038:	e59f1014 	ldr	r1, [pc, #20]	; a054 <prefetch_abort_full_except+0xd8>
    a03c:	e59f001c 	ldr	r0, [pc, #28]	; a060 <prefetch_abort_full_except+0xe4>
    a040:	eb000aad 	bl	cafc <printk>
    a044:	eb000bdc 	bl	cfbc <clean_reboot>
    a048:	0000f898 	.word	0x0000f898
    a04c:	0000de10 	.word	0x0000de10
    a050:	0000e098 	.word	0x0000e098
    a054:	0000ddfc 	.word	0x0000ddfc
    a058:	0000d658 	.word	0x0000d658
    a05c:	0000de2c 	.word	0x0000de2c
    a060:	0000de44 	.word	0x0000de44

0000a064 <data_abort_full_except>:
    a064:	e52de004 	push	{lr}		; (str lr, [sp, #-4]!)
    a068:	e24dd00c 	sub	sp, sp, #12, 0
    a06c:	e5903040 	ldr	r3, [r0, #64]	; 0x40
    a070:	e1530001 	cmp	r3, r1
    a074:	1a000016 	bne	a0d4 <data_abort_full_except+0x70>
    a078:	e1a04000 	mov	r4, r0
    a07c:	e1a05001 	mov	r5, r1
    a080:	e590303c 	ldr	r3, [r0, #60]	; 0x3c
    a084:	e1530002 	cmp	r3, r2
    a088:	1a000019 	bne	a0f4 <data_abort_full_except+0x90>
    a08c:	e59f309c 	ldr	r3, [pc, #156]	; a130 <data_abort_full_except+0xcc>
    a090:	e5933004 	ldr	r3, [r3, #4]
    a094:	e3530000 	cmp	r3, #0, 0
    a098:	0a00001d 	beq	a114 <data_abort_full_except+0xb0>
    a09c:	e1a00001 	mov	r0, r1
    a0a0:	ebffff94 	bl	9ef8 <mode_get>
    a0a4:	e3500010 	cmp	r0, #16, 0
    a0a8:	0a000003 	beq	a0bc <data_abort_full_except+0x58>
    a0ac:	e2842038 	add	r2, r4, #56, 0	; 0x38
    a0b0:	e2841034 	add	r1, r4, #52, 0	; 0x34
    a0b4:	e1a00005 	mov	r0, r5
    a0b8:	ebfff866 	bl	8258 <priv_get_sp_lr_asm>
    a0bc:	e59f306c 	ldr	r3, [pc, #108]	; a130 <data_abort_full_except+0xcc>
    a0c0:	e5933004 	ldr	r3, [r3, #4]
    a0c4:	e1a00004 	mov	r0, r4
    a0c8:	e12fff33 	blx	r3
    a0cc:	e1a00004 	mov	r0, r4
    a0d0:	ebffff9f 	bl	9f54 <switchto>
    a0d4:	e59f3058 	ldr	r3, [pc, #88]	; a134 <data_abort_full_except+0xd0>
    a0d8:	e58d3000 	str	r3, [sp]
    a0dc:	e3a0303e 	mov	r3, #62, 0	; 0x3e
    a0e0:	e59f2050 	ldr	r2, [pc, #80]	; a138 <data_abort_full_except+0xd4>
    a0e4:	e59f1050 	ldr	r1, [pc, #80]	; a13c <data_abort_full_except+0xd8>
    a0e8:	e59f0050 	ldr	r0, [pc, #80]	; a140 <data_abort_full_except+0xdc>
    a0ec:	eb000a82 	bl	cafc <printk>
    a0f0:	eb000bb1 	bl	cfbc <clean_reboot>
    a0f4:	e59f3048 	ldr	r3, [pc, #72]	; a144 <data_abort_full_except+0xe0>
    a0f8:	e58d3000 	str	r3, [sp]
    a0fc:	e3a0303f 	mov	r3, #63, 0	; 0x3f
    a100:	e59f2030 	ldr	r2, [pc, #48]	; a138 <data_abort_full_except+0xd4>
    a104:	e59f1030 	ldr	r1, [pc, #48]	; a13c <data_abort_full_except+0xd8>
    a108:	e59f0030 	ldr	r0, [pc, #48]	; a140 <data_abort_full_except+0xdc>
    a10c:	eb000a7a 	bl	cafc <printk>
    a110:	eb000ba9 	bl	cfbc <clean_reboot>
    a114:	e58d2000 	str	r2, [sp]
    a118:	e3a03042 	mov	r3, #66, 0	; 0x42
    a11c:	e59f2014 	ldr	r2, [pc, #20]	; a138 <data_abort_full_except+0xd4>
    a120:	e59f1014 	ldr	r1, [pc, #20]	; a13c <data_abort_full_except+0xd8>
    a124:	e59f001c 	ldr	r0, [pc, #28]	; a148 <data_abort_full_except+0xe4>
    a128:	eb000a73 	bl	cafc <printk>
    a12c:	eb000ba2 	bl	cfbc <clean_reboot>
    a130:	0000f898 	.word	0x0000f898
    a134:	0000de10 	.word	0x0000de10
    a138:	0000e0b4 	.word	0x0000e0b4
    a13c:	0000ddfc 	.word	0x0000ddfc
    a140:	0000d658 	.word	0x0000d658
    a144:	0000de2c 	.word	0x0000de2c
    a148:	0000de7c 	.word	0x0000de7c

0000a14c <syscall_full_except>:
    a14c:	e52de004 	push	{lr}		; (str lr, [sp, #-4]!)
    a150:	e24dd014 	sub	sp, sp, #20, 0
    a154:	e5903040 	ldr	r3, [r0, #64]	; 0x40
    a158:	e1530001 	cmp	r3, r1
    a15c:	1a00000c 	bne	a194 <syscall_full_except+0x48>
    a160:	e1a04000 	mov	r4, r0
    a164:	e1a05002 	mov	r5, r2
    a168:	e590303c 	ldr	r3, [r0, #60]	; 0x3c
    a16c:	e1530002 	cmp	r3, r2
    a170:	0a00000f 	beq	a1b4 <syscall_full_except+0x68>
    a174:	e59f30d0 	ldr	r3, [pc, #208]	; a24c <syscall_full_except+0x100>
    a178:	e58d3000 	str	r3, [sp]
    a17c:	e3a03054 	mov	r3, #84, 0	; 0x54
    a180:	e59f20c8 	ldr	r2, [pc, #200]	; a250 <syscall_full_except+0x104>
    a184:	e59f10c8 	ldr	r1, [pc, #200]	; a254 <syscall_full_except+0x108>
    a188:	e59f00c8 	ldr	r0, [pc, #200]	; a258 <syscall_full_except+0x10c>
    a18c:	eb000a5a 	bl	cafc <printk>
    a190:	eb000b89 	bl	cfbc <clean_reboot>
    a194:	e59f30c0 	ldr	r3, [pc, #192]	; a25c <syscall_full_except+0x110>
    a198:	e58d3000 	str	r3, [sp]
    a19c:	e3a0304f 	mov	r3, #79, 0	; 0x4f
    a1a0:	e59f20a8 	ldr	r2, [pc, #168]	; a250 <syscall_full_except+0x104>
    a1a4:	e59f10a8 	ldr	r1, [pc, #168]	; a254 <syscall_full_except+0x108>
    a1a8:	e59f00a8 	ldr	r0, [pc, #168]	; a258 <syscall_full_except+0x10c>
    a1ac:	eb000a52 	bl	cafc <printk>
    a1b0:	eb000b81 	bl	cfbc <clean_reboot>
    a1b4:	e1a00001 	mov	r0, r1
    a1b8:	ebffff4e 	bl	9ef8 <mode_get>
    a1bc:	e3500010 	cmp	r0, #16, 0
    a1c0:	1a00000c 	bne	a1f8 <syscall_full_except+0xac>
    a1c4:	e28d200c 	add	r2, sp, #12, 0
    a1c8:	e59f3090 	ldr	r3, [pc, #144]	; a260 <syscall_full_except+0x114>
    a1cc:	e1520003 	cmp	r2, r3
    a1d0:	9a00000e 	bls	a210 <syscall_full_except+0xc4>
    a1d4:	e59f3088 	ldr	r3, [pc, #136]	; a264 <syscall_full_except+0x118>
    a1d8:	e5933008 	ldr	r3, [r3, #8]
    a1dc:	e3530000 	cmp	r3, #0, 0
    a1e0:	0a000012 	beq	a230 <syscall_full_except+0xe4>
    a1e4:	e1a00004 	mov	r0, r4
    a1e8:	e12fff33 	blx	r3
    a1ec:	e5840000 	str	r0, [r4]
    a1f0:	e1a00004 	mov	r0, r4
    a1f4:	ebffff56 	bl	9f54 <switchto>
    a1f8:	e3a03057 	mov	r3, #87, 0	; 0x57
    a1fc:	e59f204c 	ldr	r2, [pc, #76]	; a250 <syscall_full_except+0x104>
    a200:	e59f104c 	ldr	r1, [pc, #76]	; a254 <syscall_full_except+0x108>
    a204:	e59f005c 	ldr	r0, [pc, #92]	; a268 <syscall_full_except+0x11c>
    a208:	eb000a3b 	bl	cafc <printk>
    a20c:	eb000b6a 	bl	cfbc <clean_reboot>
    a210:	e59f3054 	ldr	r3, [pc, #84]	; a26c <syscall_full_except+0x120>
    a214:	e58d3000 	str	r3, [sp]
    a218:	e3a0305c 	mov	r3, #92, 0	; 0x5c
    a21c:	e59f202c 	ldr	r2, [pc, #44]	; a250 <syscall_full_except+0x104>
    a220:	e59f102c 	ldr	r1, [pc, #44]	; a254 <syscall_full_except+0x108>
    a224:	e59f0044 	ldr	r0, [pc, #68]	; a270 <syscall_full_except+0x124>
    a228:	eb000a33 	bl	cafc <printk>
    a22c:	eb000b62 	bl	cfbc <clean_reboot>
    a230:	e58d5000 	str	r5, [sp]
    a234:	e3a03061 	mov	r3, #97, 0	; 0x61
    a238:	e59f2010 	ldr	r2, [pc, #16]	; a250 <syscall_full_except+0x104>
    a23c:	e59f1010 	ldr	r1, [pc, #16]	; a254 <syscall_full_except+0x108>
    a240:	e59f002c 	ldr	r0, [pc, #44]	; a274 <syscall_full_except+0x128>
    a244:	eb000a2c 	bl	cafc <printk>
    a248:	eb000b5b 	bl	cfbc <clean_reboot>
    a24c:	0000de2c 	.word	0x0000de2c
    a250:	0000e0cc 	.word	0x0000e0cc
    a254:	0000ddfc 	.word	0x0000ddfc
    a258:	0000d658 	.word	0x0000d658
    a25c:	0000de10 	.word	0x0000de10
    a260:	000186a0 	.word	0x000186a0
    a264:	0000f898 	.word	0x0000f898
    a268:	0000deb0 	.word	0x0000deb0
    a26c:	0000df30 	.word	0x0000df30
    a270:	0000deec 	.word	0x0000deec
    a274:	0000df48 	.word	0x0000df48

0000a278 <full_except_set_prefetch>:
    a278:	e59f300c 	ldr	r3, [pc, #12]	; a28c <full_except_set_prefetch+0x14>
    a27c:	e5932000 	ldr	r2, [r3]
    a280:	e5830000 	str	r0, [r3]
    a284:	e1a00002 	mov	r0, r2
    a288:	e12fff1e 	bx	lr
    a28c:	0000f898 	.word	0x0000f898

0000a290 <full_except_set_data_abort>:
    a290:	e59f300c 	ldr	r3, [pc, #12]	; a2a4 <full_except_set_data_abort+0x14>
    a294:	e5932004 	ldr	r2, [r3, #4]
    a298:	e5830004 	str	r0, [r3, #4]
    a29c:	e1a00002 	mov	r0, r2
    a2a0:	e12fff1e 	bx	lr
    a2a4:	0000f898 	.word	0x0000f898

0000a2a8 <full_except_set_syscall>:
    a2a8:	e59f300c 	ldr	r3, [pc, #12]	; a2bc <full_except_set_syscall+0x14>
    a2ac:	e5932008 	ldr	r2, [r3, #8]
    a2b0:	e5830008 	str	r0, [r3, #8]
    a2b4:	e1a00002 	mov	r0, r2
    a2b8:	e12fff1e 	bx	lr
    a2bc:	0000f898 	.word	0x0000f898

0000a2c0 <full_except_install>:
    a2c0:	e52de004 	push	{lr}		; (str lr, [sp, #-4]!)
    a2c4:	e24dd00c 	sub	sp, sp, #12, 0
    a2c8:	e3500000 	cmp	r0, #0, 0
    a2cc:	1a000007 	bne	a2f0 <full_except_install+0x30>
    a2d0:	ee1c3f10 	mrc	15, 0, r3, cr12, cr0, {0}
    a2d4:	e3530000 	cmp	r3, #0, 0
    a2d8:	0a00002a 	beq	a388 <full_except_install+0xc8>
    a2dc:	e59f2158 	ldr	r2, [pc, #344]	; a43c <full_except_install+0x17c>
    a2e0:	e1530002 	cmp	r3, r2
    a2e4:	1a00004d 	bne	a420 <full_except_install+0x160>
    a2e8:	e28dd00c 	add	sp, sp, #12, 0
    a2ec:	e49df004 	pop	{pc}		; (ldr pc, [sp], #4)
    a2f0:	e59f3144 	ldr	r3, [pc, #324]	; a43c <full_except_install+0x17c>
    a2f4:	e313001f 	tst	r3, #31, 0
    a2f8:	1a000013 	bne	a34c <full_except_install+0x8c>
    a2fc:	ee1c2f10 	mrc	15, 0, r2, cr12, cr0, {0}
    a300:	e1520003 	cmp	r2, r3
    a304:	0afffff7 	beq	a2e8 <full_except_install+0x28>
    a308:	e3520000 	cmp	r2, #0, 0
    a30c:	1a000016 	bne	a36c <full_except_install+0xac>
    a310:	ee0c3f10 	mcr	15, 0, r3, cr12, cr0, {0}
    a314:	e3a03000 	mov	r3, #0, 0
    a318:	ee073f95 	mcr	15, 0, r3, cr7, cr5, {4}
    a31c:	ee1c3f10 	mrc	15, 0, r3, cr12, cr0, {0}
    a320:	e59f2114 	ldr	r2, [pc, #276]	; a43c <full_except_install+0x17c>
    a324:	e1530002 	cmp	r3, r2
    a328:	0affffee 	beq	a2e8 <full_except_install+0x28>
    a32c:	e58d3004 	str	r3, [sp, #4]
    a330:	e58d2000 	str	r2, [sp]
    a334:	e3a03047 	mov	r3, #71, 0	; 0x47
    a338:	e59f2100 	ldr	r2, [pc, #256]	; a440 <full_except_install+0x180>
    a33c:	e59f1100 	ldr	r1, [pc, #256]	; a444 <full_except_install+0x184>
    a340:	e59f0100 	ldr	r0, [pc, #256]	; a448 <full_except_install+0x188>
    a344:	eb0009ec 	bl	cafc <printk>
    a348:	eb000b1b 	bl	cfbc <clean_reboot>
    a34c:	e59f30e8 	ldr	r3, [pc, #232]	; a43c <full_except_install+0x17c>
    a350:	e58d3000 	str	r3, [sp]
    a354:	e3a03038 	mov	r3, #56, 0	; 0x38
    a358:	e59f20e0 	ldr	r2, [pc, #224]	; a440 <full_except_install+0x180>
    a35c:	e59f10e0 	ldr	r1, [pc, #224]	; a444 <full_except_install+0x184>
    a360:	e59f00e4 	ldr	r0, [pc, #228]	; a44c <full_except_install+0x18c>
    a364:	eb0009e4 	bl	cafc <printk>
    a368:	eb000b13 	bl	cfbc <clean_reboot>
    a36c:	e58d2000 	str	r2, [sp]
    a370:	e3a03040 	mov	r3, #64, 0	; 0x40
    a374:	e59f20c4 	ldr	r2, [pc, #196]	; a440 <full_except_install+0x180>
    a378:	e59f10c4 	ldr	r1, [pc, #196]	; a444 <full_except_install+0x184>
    a37c:	e59f00cc 	ldr	r0, [pc, #204]	; a450 <full_except_install+0x190>
    a380:	eb0009dd 	bl	cafc <printk>
    a384:	eb000b0c 	bl	cfbc <clean_reboot>
    a388:	e59f30ac 	ldr	r3, [pc, #172]	; a43c <full_except_install+0x17c>
    a38c:	e313001f 	tst	r3, #31, 0
    a390:	1a000013 	bne	a3e4 <full_except_install+0x124>
    a394:	ee1c2f10 	mrc	15, 0, r2, cr12, cr0, {0}
    a398:	e1520003 	cmp	r2, r3
    a39c:	0affffd1 	beq	a2e8 <full_except_install+0x28>
    a3a0:	e3520000 	cmp	r2, #0, 0
    a3a4:	1a000016 	bne	a404 <full_except_install+0x144>
    a3a8:	ee0c3f10 	mcr	15, 0, r3, cr12, cr0, {0}
    a3ac:	e3a03000 	mov	r3, #0, 0
    a3b0:	ee073f95 	mcr	15, 0, r3, cr7, cr5, {4}
    a3b4:	ee1c3f10 	mrc	15, 0, r3, cr12, cr0, {0}
    a3b8:	e59f207c 	ldr	r2, [pc, #124]	; a43c <full_except_install+0x17c>
    a3bc:	e1530002 	cmp	r3, r2
    a3c0:	0affffc8 	beq	a2e8 <full_except_install+0x28>
    a3c4:	e58d3004 	str	r3, [sp, #4]
    a3c8:	e58d2000 	str	r2, [sp]
    a3cc:	e3a03047 	mov	r3, #71, 0	; 0x47
    a3d0:	e59f2068 	ldr	r2, [pc, #104]	; a440 <full_except_install+0x180>
    a3d4:	e59f1068 	ldr	r1, [pc, #104]	; a444 <full_except_install+0x184>
    a3d8:	e59f0068 	ldr	r0, [pc, #104]	; a448 <full_except_install+0x188>
    a3dc:	eb0009c6 	bl	cafc <printk>
    a3e0:	eb000af5 	bl	cfbc <clean_reboot>
    a3e4:	e59f3050 	ldr	r3, [pc, #80]	; a43c <full_except_install+0x17c>
    a3e8:	e58d3000 	str	r3, [sp]
    a3ec:	e3a03038 	mov	r3, #56, 0	; 0x38
    a3f0:	e59f2048 	ldr	r2, [pc, #72]	; a440 <full_except_install+0x180>
    a3f4:	e59f1048 	ldr	r1, [pc, #72]	; a444 <full_except_install+0x184>
    a3f8:	e59f004c 	ldr	r0, [pc, #76]	; a44c <full_except_install+0x18c>
    a3fc:	eb0009be 	bl	cafc <printk>
    a400:	eb000aed 	bl	cfbc <clean_reboot>
    a404:	e58d2000 	str	r2, [sp]
    a408:	e3a03040 	mov	r3, #64, 0	; 0x40
    a40c:	e59f202c 	ldr	r2, [pc, #44]	; a440 <full_except_install+0x180>
    a410:	e59f102c 	ldr	r1, [pc, #44]	; a444 <full_except_install+0x184>
    a414:	e59f0034 	ldr	r0, [pc, #52]	; a450 <full_except_install+0x190>
    a418:	eb0009b7 	bl	cafc <printk>
    a41c:	eb000ae6 	bl	cfbc <clean_reboot>
    a420:	e58d3000 	str	r3, [sp]
    a424:	e3a03091 	mov	r3, #145, 0	; 0x91
    a428:	e59f2024 	ldr	r2, [pc, #36]	; a454 <full_except_install+0x194>
    a42c:	e59f1024 	ldr	r1, [pc, #36]	; a458 <full_except_install+0x198>
    a430:	e59f0024 	ldr	r0, [pc, #36]	; a45c <full_except_install+0x19c>
    a434:	eb0009b0 	bl	cafc <printk>
    a438:	eb000adf 	bl	cfbc <clean_reboot>
    a43c:	00008560 	.word	0x00008560
    a440:	0000e0e0 	.word	0x0000e0e0
    a444:	0000df78 	.word	0x0000df78
    a448:	0000e01c 	.word	0x0000e01c
    a44c:	0000dfbc 	.word	0x0000dfbc
    a450:	0000dfe4 	.word	0x0000dfe4
    a454:	0000e0f0 	.word	0x0000e0f0
    a458:	0000ddfc 	.word	0x0000ddfc
    a45c:	0000e048 	.word	0x0000e048

0000a460 <run_single>:
    a460:	e92d41f0 	push	{r4, r5, r6, r7, r8, lr}
    a464:	e1a06000 	mov	r6, r0
    a468:	e1a00001 	mov	r0, r1
    a46c:	e1a01002 	mov	r1, r2
    a470:	e1a04003 	mov	r4, r3
    a474:	e59d3018 	ldr	r3, [sp, #24]
    a478:	e3530000 	cmp	r3, #0, 0
    a47c:	0a000022 	beq	a50c <run_single+0xac>
    a480:	e1a02004 	mov	r2, r4
    a484:	ebfffb7b 	bl	9278 <eqx_fork>
    a488:	e1a05000 	mov	r5, r0
    a48c:	e3a03000 	mov	r3, #0, 0
    a490:	e5853070 	str	r3, [r5, #112]	; 0x70
    a494:	ebfffd5b 	bl	9a08 <eqx_run_threads>
    a498:	e3540000 	cmp	r4, #0, 0
    a49c:	0a000002 	beq	a4ac <run_single+0x4c>
    a4a0:	e595304c 	ldr	r3, [r5, #76]	; 0x4c
    a4a4:	e1530004 	cmp	r3, r4
    a4a8:	1a00001b 	bne	a51c <run_single+0xbc>
    a4ac:	e595704c 	ldr	r7, [r5, #76]	; 0x4c
    a4b0:	e59f109c 	ldr	r1, [pc, #156]	; a554 <run_single+0xf4>
    a4b4:	e59f009c 	ldr	r0, [pc, #156]	; a558 <run_single+0xf8>
    a4b8:	eb00098f 	bl	cafc <printk>
    a4bc:	e59f0098 	ldr	r0, [pc, #152]	; a55c <run_single+0xfc>
    a4c0:	eb00098d 	bl	cafc <printk>
    a4c4:	e3a04000 	mov	r4, #0, 0
    a4c8:	e5854070 	str	r4, [r5, #112]	; 0x70
    a4cc:	e1540006 	cmp	r4, r6
    a4d0:	aa00001d 	bge	a54c <run_single+0xec>
    a4d4:	e1a00005 	mov	r0, r5
    a4d8:	ebfffb8c 	bl	9310 <eqx_refork>
    a4dc:	ebfffd49 	bl	9a08 <eqx_run_threads>
    a4e0:	e595304c 	ldr	r3, [r5, #76]	; 0x4c
    a4e4:	e1530007 	cmp	r3, r7
    a4e8:	1a000011 	bne	a534 <run_single+0xd4>
    a4ec:	e59f1060 	ldr	r1, [pc, #96]	; a554 <run_single+0xf4>
    a4f0:	e59f0060 	ldr	r0, [pc, #96]	; a558 <run_single+0xf8>
    a4f4:	eb000980 	bl	cafc <printk>
    a4f8:	e1a01004 	mov	r1, r4
    a4fc:	e59f005c 	ldr	r0, [pc, #92]	; a560 <run_single+0x100>
    a500:	eb00097d 	bl	cafc <printk>
    a504:	e2844001 	add	r4, r4, #1, 0
    a508:	eaffffef 	b	a4cc <run_single+0x6c>
    a50c:	e1a02004 	mov	r2, r4
    a510:	ebfffb77 	bl	92f4 <eqx_fork_nostack>
    a514:	e1a05000 	mov	r5, r0
    a518:	eaffffdb 	b	a48c <run_single+0x2c>
    a51c:	e3a0307b 	mov	r3, #123, 0	; 0x7b
    a520:	e59f202c 	ldr	r2, [pc, #44]	; a554 <run_single+0xf4>
    a524:	e59f1038 	ldr	r1, [pc, #56]	; a564 <run_single+0x104>
    a528:	e59f0038 	ldr	r0, [pc, #56]	; a568 <run_single+0x108>
    a52c:	eb000972 	bl	cafc <printk>
    a530:	eb000aa1 	bl	cfbc <clean_reboot>
    a534:	e3a03085 	mov	r3, #133, 0	; 0x85
    a538:	e59f2014 	ldr	r2, [pc, #20]	; a554 <run_single+0xf4>
    a53c:	e59f1020 	ldr	r1, [pc, #32]	; a564 <run_single+0x104>
    a540:	e59f0020 	ldr	r0, [pc, #32]	; a568 <run_single+0x108>
    a544:	eb00096c 	bl	cafc <printk>
    a548:	eb000a9b 	bl	cfbc <clean_reboot>
    a54c:	e1a00005 	mov	r0, r5
    a550:	e8bd81f0 	pop	{r4, r5, r6, r7, r8, pc}
    a554:	0000e464 	.word	0x0000e464
    a558:	0000d510 	.word	0x0000d510
    a55c:	0000e15c 	.word	0x0000e15c
    a560:	0000e18c 	.word	0x0000e18c
    a564:	0000e104 	.word	0x0000e104
    a568:	0000e11c 	.word	0x0000e11c

0000a56c <reg_dump>:
    a56c:	e24dd008 	sub	sp, sp, #8, 0
    a570:	e92d4070 	push	{r4, r5, r6, lr}
    a574:	e24dd008 	sub	sp, sp, #8, 0
    a578:	e58d301c 	str	r3, [sp, #28]
    a57c:	e59d3028 	ldr	r3, [sp, #40]	; 0x28
    a580:	e3530000 	cmp	r3, #0, 0
    a584:	1a000003 	bne	a598 <reg_dump+0x2c>
    a588:	e28dd008 	add	sp, sp, #8, 0
    a58c:	e8bd4070 	pop	{r4, r5, r6, lr}
    a590:	e28dd008 	add	sp, sp, #8, 0
    a594:	e12fff1e 	bx	lr
    a598:	e1a04001 	mov	r4, r1
    a59c:	e1a06002 	mov	r6, r2
    a5a0:	e59d3048 	ldr	r3, [sp, #72]	; 0x48
    a5a4:	e58d3004 	str	r3, [sp, #4]
    a5a8:	e59d3044 	ldr	r3, [sp, #68]	; 0x44
    a5ac:	e58d3000 	str	r3, [sp]
    a5b0:	e5923040 	ldr	r3, [r2, #64]	; 0x40
    a5b4:	e592203c 	ldr	r2, [r2, #60]	; 0x3c
    a5b8:	e1a01000 	mov	r1, r0
    a5bc:	e59f0098 	ldr	r0, [pc, #152]	; a65c <reg_dump+0xf0>
    a5c0:	eb00094d 	bl	cafc <printk>
    a5c4:	e3540000 	cmp	r4, #0, 0
    a5c8:	0a000004 	beq	a5e0 <reg_dump+0x74>
    a5cc:	e59f008c 	ldr	r0, [pc, #140]	; a660 <reg_dump+0xf4>
    a5d0:	eb000949 	bl	cafc <printk>
    a5d4:	e3a04000 	mov	r4, #0, 0
    a5d8:	e1a05004 	mov	r5, r4
    a5dc:	ea000008 	b	a604 <reg_dump+0x98>
    a5e0:	e59f007c 	ldr	r0, [pc, #124]	; a664 <reg_dump+0xf8>
    a5e4:	eb000944 	bl	cafc <printk>
    a5e8:	eaffffe6 	b	a588 <reg_dump+0x1c>
    a5ec:	e1a01004 	mov	r1, r4
    a5f0:	e59f0070 	ldr	r0, [pc, #112]	; a668 <reg_dump+0xfc>
    a5f4:	eb000940 	bl	cafc <printk>
    a5f8:	e2855001 	add	r5, r5, #1, 0
    a5fc:	ea000005 	b	a618 <reg_dump+0xac>
    a600:	e2844001 	add	r4, r4, #1, 0
    a604:	e354000e 	cmp	r4, #14, 0
    a608:	8a000009 	bhi	a634 <reg_dump+0xc8>
    a60c:	e7962104 	ldr	r2, [r6, r4, lsl #2]
    a610:	e3520000 	cmp	r2, #0, 0
    a614:	1afffff4 	bne	a5ec <reg_dump+0x80>
    a618:	e3550000 	cmp	r5, #0, 0
    a61c:	0afffff7 	beq	a600 <reg_dump+0x94>
    a620:	e3150003 	tst	r5, #3, 0
    a624:	1afffff5 	bne	a600 <reg_dump+0x94>
    a628:	e59f0030 	ldr	r0, [pc, #48]	; a660 <reg_dump+0xf4>
    a62c:	eb000932 	bl	cafc <printk>
    a630:	eafffff2 	b	a600 <reg_dump+0x94>
    a634:	e3550000 	cmp	r5, #0, 0
    a638:	0a000004 	beq	a650 <reg_dump+0xe4>
    a63c:	e3150003 	tst	r5, #3, 0
    a640:	0affffd0 	beq	a588 <reg_dump+0x1c>
    a644:	e59f0014 	ldr	r0, [pc, #20]	; a660 <reg_dump+0xf4>
    a648:	eb00092b 	bl	cafc <printk>
    a64c:	eaffffcd 	b	a588 <reg_dump+0x1c>
    a650:	e59f0014 	ldr	r0, [pc, #20]	; a66c <reg_dump+0x100>
    a654:	eb000928 	bl	cafc <printk>
    a658:	eaffffca 	b	a588 <reg_dump+0x1c>
    a65c:	0000e1bc 	.word	0x0000e1bc
    a660:	0000e448 	.word	0x0000e448
    a664:	0000e1e8 	.word	0x0000e1e8
    a668:	0000e200 	.word	0x0000e200
    a66c:	0000e20c 	.word	0x0000e20c

0000a670 <simple_interleave_check>:
    a670:	e24dd010 	sub	sp, sp, #16, 0
    a674:	e92d4ff0 	push	{r4, r5, r6, r7, r8, r9, sl, fp, lr}
    a678:	e28db020 	add	fp, sp, #32, 0
    a67c:	e24dd02c 	sub	sp, sp, #44, 0	; 0x2c
    a680:	e98b000f 	stmib	fp, {r0, r1, r2, r3}
    a684:	e59ba014 	ldr	sl, [fp, #20]
    a688:	e35a0000 	cmp	sl, #0, 0
    a68c:	0a000034 	beq	a764 <simple_interleave_check+0xf4>
    a690:	e1a0900a 	mov	r9, sl
    a694:	e59b3024 	ldr	r3, [fp, #36]	; 0x24
    a698:	e3530000 	cmp	r3, #0, 0
    a69c:	0a000038 	beq	a784 <simple_interleave_check+0x114>
    a6a0:	e59b0028 	ldr	r0, [fp, #40]	; 0x28
    a6a4:	ebfffb3f 	bl	93a8 <eqx_init_w_vm>
    a6a8:	e3a03001 	mov	r3, #1, 0
    a6ac:	e54b3038 	strb	r3, [fp, #-56]	; 0xffffffc8
    a6b0:	e3a03000 	mov	r3, #0, 0
    a6b4:	e50b302c 	str	r3, [fp, #-44]	; 0xffffffd4
    a6b8:	e51b3028 	ldr	r3, [fp, #-40]	; 0xffffffd8
    a6bc:	e58d3000 	str	r3, [sp]
    a6c0:	e24b3038 	sub	r3, fp, #56, 0	; 0x38
    a6c4:	e893000f 	ldm	r3, {r0, r1, r2, r3}
    a6c8:	ebfffdc2 	bl	9dd8 <set_scheduler_config>
    a6cc:	e59b0020 	ldr	r0, [fp, #32]
    a6d0:	ebfffab1 	bl	919c <eqx_verbose>
    a6d4:	e59b8018 	ldr	r8, [fp, #24]
    a6d8:	e1a01008 	mov	r1, r8
    a6dc:	e59f0214 	ldr	r0, [pc, #532]	; a8f8 <simple_interleave_check+0x288>
    a6e0:	eb000905 	bl	cafc <printk>
    a6e4:	e3580000 	cmp	r8, #0, 0
    a6e8:	0a000027 	beq	a78c <simple_interleave_check+0x11c>
    a6ec:	e3a02000 	mov	r2, #0, 0
    a6f0:	e59b100c 	ldr	r1, [fp, #12]
    a6f4:	e59b0004 	ldr	r0, [fp, #4]
    a6f8:	ebfffade 	bl	9278 <eqx_fork>
    a6fc:	e50b0040 	str	r0, [fp, #-64]	; 0xffffffc0
    a700:	ebfffcc0 	bl	9a08 <eqx_run_threads>
    a704:	e50b0044 	str	r0, [fp, #-68]	; 0xffffffbc
    a708:	e3580000 	cmp	r8, #0, 0
    a70c:	0a000024 	beq	a7a4 <simple_interleave_check+0x134>
    a710:	e3a02000 	mov	r2, #0, 0
    a714:	e59b1010 	ldr	r1, [fp, #16]
    a718:	e59b0008 	ldr	r0, [fp, #8]
    a71c:	ebfffaf4 	bl	92f4 <eqx_fork_nostack>
    a720:	e1a07000 	mov	r7, r0
    a724:	ebfffcb7 	bl	9a08 <eqx_run_threads>
    a728:	e1a06000 	mov	r6, r0
    a72c:	e1a0100a 	mov	r1, sl
    a730:	e59f01c4 	ldr	r0, [pc, #452]	; a8fc <simple_interleave_check+0x28c>
    a734:	eb0008f0 	bl	cafc <printk>
    a738:	e28a4001 	add	r4, sl, #1, 0
    a73c:	e1a03104 	lsl	r3, r4, #2
    a740:	e2833007 	add	r3, r3, #7, 0
    a744:	e3c33007 	bic	r3, r3, #7, 0
    a748:	e04dd003 	sub	sp, sp, r3
    a74c:	e28d5008 	add	r5, sp, #8, 0
    a750:	e1a00007 	mov	r0, r7
    a754:	ebfffaed 	bl	9310 <eqx_refork>
    a758:	e5857000 	str	r7, [r5]
    a75c:	e3a07001 	mov	r7, #1, 0
    a760:	ea00001b 	b	a7d4 <simple_interleave_check+0x164>
    a764:	e59f3194 	ldr	r3, [pc, #404]	; a900 <simple_interleave_check+0x290>
    a768:	e58d3000 	str	r3, [sp]
    a76c:	e3a03029 	mov	r3, #41, 0	; 0x29
    a770:	e59f218c 	ldr	r2, [pc, #396]	; a904 <simple_interleave_check+0x294>
    a774:	e59f118c 	ldr	r1, [pc, #396]	; a908 <simple_interleave_check+0x298>
    a778:	e59f018c 	ldr	r0, [pc, #396]	; a90c <simple_interleave_check+0x29c>
    a77c:	eb0008de 	bl	cafc <printk>
    a780:	eb000a0d 	bl	cfbc <clean_reboot>
    a784:	ebfffc7c 	bl	997c <eqx_init>
    a788:	eaffffc6 	b	a6a8 <simple_interleave_check+0x38>
    a78c:	e3a02000 	mov	r2, #0, 0
    a790:	e59b100c 	ldr	r1, [fp, #12]
    a794:	e59b0004 	ldr	r0, [fp, #4]
    a798:	ebfffad5 	bl	92f4 <eqx_fork_nostack>
    a79c:	e50b0040 	str	r0, [fp, #-64]	; 0xffffffc0
    a7a0:	eaffffd6 	b	a700 <simple_interleave_check+0x90>
    a7a4:	e3a02000 	mov	r2, #0, 0
    a7a8:	e59b1010 	ldr	r1, [fp, #16]
    a7ac:	e59b0008 	ldr	r0, [fp, #8]
    a7b0:	ebfffacf 	bl	92f4 <eqx_fork_nostack>
    a7b4:	e1a07000 	mov	r7, r0
    a7b8:	eaffffd9 	b	a724 <simple_interleave_check+0xb4>
    a7bc:	e1a02006 	mov	r2, r6
    a7c0:	e59b1010 	ldr	r1, [fp, #16]
    a7c4:	e59b0008 	ldr	r0, [fp, #8]
    a7c8:	ebfffac9 	bl	92f4 <eqx_fork_nostack>
    a7cc:	e7850107 	str	r0, [r5, r7, lsl #2]
    a7d0:	e2877001 	add	r7, r7, #1, 0
    a7d4:	e1570009 	cmp	r7, r9
    a7d8:	2a000006 	bcs	a7f8 <simple_interleave_check+0x188>
    a7dc:	e3580000 	cmp	r8, #0, 0
    a7e0:	0afffff5 	beq	a7bc <simple_interleave_check+0x14c>
    a7e4:	e1a02006 	mov	r2, r6
    a7e8:	e59b1010 	ldr	r1, [fp, #16]
    a7ec:	e59b0008 	ldr	r0, [fp, #8]
    a7f0:	ebfffaa0 	bl	9278 <eqx_fork>
    a7f4:	eafffff4 	b	a7cc <simple_interleave_check+0x15c>
    a7f8:	e51b7040 	ldr	r7, [fp, #-64]	; 0xffffffc0
    a7fc:	e1a00007 	mov	r0, r7
    a800:	ebfffac2 	bl	9310 <eqx_refork>
    a804:	e785710a 	str	r7, [r5, sl, lsl #2]
    a808:	e51b2044 	ldr	r2, [fp, #-68]	; 0xffffffbc
    a80c:	e0262a96 	mla	r6, r6, sl, r2
    a810:	e3a08001 	mov	r8, #1, 0
    a814:	e50b802c 	str	r8, [fp, #-44]	; 0xffffffd4
    a818:	e5973050 	ldr	r3, [r7, #80]	; 0x50
    a81c:	e50b3028 	str	r3, [fp, #-40]	; 0xffffffd8
    a820:	ea000012 	b	a870 <simple_interleave_check+0x200>
    a824:	e50b8034 	str	r8, [fp, #-52]	; 0xffffffcc
    a828:	e51b3028 	ldr	r3, [fp, #-40]	; 0xffffffd8
    a82c:	e58d3000 	str	r3, [sp]
    a830:	e24b3038 	sub	r3, fp, #56, 0	; 0x38
    a834:	e893000f 	ldm	r3, {r0, r1, r2, r3}
    a838:	ebfffd66 	bl	9dd8 <set_scheduler_config>
    a83c:	ebfffc71 	bl	9a08 <eqx_run_threads>
    a840:	e1a07000 	mov	r7, r0
    a844:	e1a03006 	mov	r3, r6
    a848:	e1a02000 	mov	r2, r0
    a84c:	e1a01008 	mov	r1, r8
    a850:	e59f00b8 	ldr	r0, [pc, #184]	; a910 <simple_interleave_check+0x2a0>
    a854:	eb0008a8 	bl	cafc <printk>
    a858:	e1560007 	cmp	r6, r7
    a85c:	1a00000c 	bne	a894 <simple_interleave_check+0x224>
    a860:	ebfffd7f 	bl	9e64 <thread_x_completed_before_yielding>
    a864:	e3500000 	cmp	r0, #0, 0
    a868:	1a000011 	bne	a8b4 <simple_interleave_check+0x244>
    a86c:	e2888001 	add	r8, r8, #1, 0
    a870:	e3580001 	cmp	r8, #1, 0
    a874:	0affffea 	beq	a824 <simple_interleave_check+0x1b4>
    a878:	e3a07000 	mov	r7, #0, 0
    a87c:	e1570004 	cmp	r7, r4
    a880:	2affffe7 	bcs	a824 <simple_interleave_check+0x1b4>
    a884:	e7950107 	ldr	r0, [r5, r7, lsl #2]
    a888:	ebfffaa0 	bl	9310 <eqx_refork>
    a88c:	e2877001 	add	r7, r7, #1, 0
    a890:	eafffff9 	b	a87c <simple_interleave_check+0x20c>
    a894:	e59f3078 	ldr	r3, [pc, #120]	; a914 <simple_interleave_check+0x2a4>
    a898:	e58d3000 	str	r3, [sp]
    a89c:	e3a03064 	mov	r3, #100, 0	; 0x64
    a8a0:	e59f205c 	ldr	r2, [pc, #92]	; a904 <simple_interleave_check+0x294>
    a8a4:	e59f105c 	ldr	r1, [pc, #92]	; a908 <simple_interleave_check+0x298>
    a8a8:	e59f005c 	ldr	r0, [pc, #92]	; a90c <simple_interleave_check+0x29c>
    a8ac:	eb000892 	bl	cafc <printk>
    a8b0:	eb0009c1 	bl	cfbc <clean_reboot>
    a8b4:	e1a01008 	mov	r1, r8
    a8b8:	e59f0058 	ldr	r0, [pc, #88]	; a918 <simple_interleave_check+0x2a8>
    a8bc:	eb00088e 	bl	cafc <printk>
    a8c0:	e59b2004 	ldr	r2, [fp, #4]
    a8c4:	e59b3008 	ldr	r3, [fp, #8]
    a8c8:	e1520003 	cmp	r2, r3
    a8cc:	13a03000 	movne	r3, #0, 0
    a8d0:	03a03001 	moveq	r3, #1, 0
    a8d4:	e1a0200a 	mov	r2, sl
    a8d8:	e3a01001 	mov	r1, #1, 0
    a8dc:	e59f0038 	ldr	r0, [pc, #56]	; a91c <simple_interleave_check+0x2ac>
    a8e0:	eb000885 	bl	cafc <printk>
    a8e4:	e3a00001 	mov	r0, #1, 0
    a8e8:	e24bd020 	sub	sp, fp, #32, 0
    a8ec:	e8bd4ff0 	pop	{r4, r5, r6, r7, r8, r9, sl, fp, lr}
    a8f0:	e28dd010 	add	sp, sp, #16, 0
    a8f4:	e12fff1e 	bx	lr
    a8f8:	0000e224 	.word	0x0000e224
    a8fc:	0000e258 	.word	0x0000e258
    a900:	0000e21c 	.word	0x0000e21c
    a904:	0000e470 	.word	0x0000e470
    a908:	0000e104 	.word	0x0000e104
    a90c:	0000d658 	.word	0x0000d658
    a910:	0000e27c 	.word	0x0000e27c
    a914:	0000e2ac 	.word	0x0000e2ac
    a918:	0000e2c4 	.word	0x0000e2c4
    a91c:	0000e2e0 	.word	0x0000e2e0

0000a920 <interleave_x_with_others>:
    a920:	e92d4ff0 	push	{r4, r5, r6, r7, r8, r9, sl, fp, lr}
    a924:	e24dd054 	sub	sp, sp, #84, 0	; 0x54
    a928:	e59d4078 	ldr	r4, [sp, #120]	; 0x78
    a92c:	e59d60a4 	ldr	r6, [sp, #164]	; 0xa4
    a930:	e1500004 	cmp	r0, r4
    a934:	aa000012 	bge	a984 <interleave_x_with_others+0x64>
    a938:	e1a05000 	mov	r5, r0
    a93c:	e1a09001 	mov	r9, r1
    a940:	e5dd308c 	ldrb	r3, [sp, #140]	; 0x8c
    a944:	e5cd303c 	strb	r3, [sp, #60]	; 0x3c
    a948:	e59d3090 	ldr	r3, [sp, #144]	; 0x90
    a94c:	e58d3044 	str	r3, [sp, #68]	; 0x44
    a950:	e3a07001 	mov	r7, #1, 0
    a954:	e58d7048 	str	r7, [sp, #72]	; 0x48
    a958:	e0863100 	add	r3, r6, r0, lsl #2
    a95c:	e58d3030 	str	r3, [sp, #48]	; 0x30
    a960:	e7963100 	ldr	r3, [r6, r0, lsl #2]
    a964:	e5933050 	ldr	r3, [r3, #80]	; 0x50
    a968:	e58d304c 	str	r3, [sp, #76]	; 0x4c
    a96c:	e58d3000 	str	r3, [sp]
    a970:	e28d303c 	add	r3, sp, #60, 0	; 0x3c
    a974:	e893000f 	ldm	r3, {r0, r1, r2, r3}
    a978:	ebfffd16 	bl	9dd8 <set_scheduler_config>
    a97c:	e3a0b000 	mov	fp, #0, 0
    a980:	ea00002a 	b	aa30 <interleave_x_with_others+0x110>
    a984:	e59f31c4 	ldr	r3, [pc, #452]	; ab50 <interleave_x_with_others+0x230>
    a988:	e58d3000 	str	r3, [sp]
    a98c:	e3a0308d 	mov	r3, #141, 0	; 0x8d
    a990:	e59f21bc 	ldr	r2, [pc, #444]	; ab54 <interleave_x_with_others+0x234>
    a994:	e59f11bc 	ldr	r1, [pc, #444]	; ab58 <interleave_x_with_others+0x238>
    a998:	e59f01bc 	ldr	r0, [pc, #444]	; ab5c <interleave_x_with_others+0x23c>
    a99c:	eb000856 	bl	cafc <printk>
    a9a0:	eb000985 	bl	cfbc <clean_reboot>
    a9a4:	e2888001 	add	r8, r8, #1, 0
    a9a8:	e1580004 	cmp	r8, r4
    a9ac:	aa000004 	bge	a9c4 <interleave_x_with_others+0xa4>
    a9b0:	e1580005 	cmp	r8, r5
    a9b4:	0afffffa 	beq	a9a4 <interleave_x_with_others+0x84>
    a9b8:	e7960108 	ldr	r0, [r6, r8, lsl #2]
    a9bc:	ebfffa53 	bl	9310 <eqx_refork>
    a9c0:	eafffff7 	b	a9a4 <interleave_x_with_others+0x84>
    a9c4:	e59d3030 	ldr	r3, [sp, #48]	; 0x30
    a9c8:	e5930000 	ldr	r0, [r3]
    a9cc:	ebfffa4f 	bl	9310 <eqx_refork>
    a9d0:	e58d7040 	str	r7, [sp, #64]	; 0x40
    a9d4:	e59d304c 	ldr	r3, [sp, #76]	; 0x4c
    a9d8:	e58d3000 	str	r3, [sp]
    a9dc:	e28d303c 	add	r3, sp, #60, 0	; 0x3c
    a9e0:	e893000f 	ldm	r3, {r0, r1, r2, r3}
    a9e4:	ebfffcfb 	bl	9dd8 <set_scheduler_config>
    a9e8:	ebfffc06 	bl	9a08 <eqx_run_threads>
    a9ec:	e1a08000 	mov	r8, r0
    a9f0:	e59da088 	ldr	sl, [sp, #136]	; 0x88
    a9f4:	e35a0000 	cmp	sl, #0, 0
    a9f8:	1a00000e 	bne	aa38 <interleave_x_with_others+0x118>
    a9fc:	e58d9034 	str	r9, [sp, #52]	; 0x34
    aa00:	e1590008 	cmp	r9, r8
    aa04:	0a000002 	beq	aa14 <interleave_x_with_others+0xf4>
    aa08:	e35a0000 	cmp	sl, #0, 0
    aa0c:	1a000010 	bne	aa54 <interleave_x_with_others+0x134>
    aa10:	e28bb001 	add	fp, fp, #1, 0
    aa14:	ebfffd12 	bl	9e64 <thread_x_completed_before_yielding>
    aa18:	e3500000 	cmp	r0, #0, 0
    aa1c:	1a000012 	bne	aa6c <interleave_x_with_others+0x14c>
    aa20:	e59d3080 	ldr	r3, [sp, #128]	; 0x80
    aa24:	e1530007 	cmp	r3, r7
    aa28:	da000038 	ble	ab10 <interleave_x_with_others+0x1f0>
    aa2c:	e2877001 	add	r7, r7, #1, 0
    aa30:	e3a08000 	mov	r8, #0, 0
    aa34:	eaffffdb 	b	a9a8 <interleave_x_with_others+0x88>
    aa38:	e58d9000 	str	r9, [sp]
    aa3c:	e1a03000 	mov	r3, r0
    aa40:	e1a02007 	mov	r2, r7
    aa44:	e1a01005 	mov	r1, r5
    aa48:	e59f0110 	ldr	r0, [pc, #272]	; ab60 <interleave_x_with_others+0x240>
    aa4c:	eb00082a 	bl	cafc <printk>
    aa50:	eaffffe9 	b	a9fc <interleave_x_with_others+0xdc>
    aa54:	e1a03007 	mov	r3, r7
    aa58:	e1a02009 	mov	r2, r9
    aa5c:	e1a01008 	mov	r1, r8
    aa60:	e59f00fc 	ldr	r0, [pc, #252]	; ab64 <interleave_x_with_others+0x244>
    aa64:	eb000824 	bl	cafc <printk>
    aa68:	eaffffe8 	b	aa10 <interleave_x_with_others+0xf0>
    aa6c:	e59d3098 	ldr	r3, [sp, #152]	; 0x98
    aa70:	e3530000 	cmp	r3, #0, 0
    aa74:	0a00001f 	beq	aaf8 <interleave_x_with_others+0x1d8>
    aa78:	e7963105 	ldr	r3, [r6, r5, lsl #2]
    aa7c:	e593306c 	ldr	r3, [r3, #108]	; 0x6c
    aa80:	e59d2094 	ldr	r2, [sp, #148]	; 0x94
    aa84:	e7922105 	ldr	r2, [r2, r5, lsl #2]
    aa88:	e1a01005 	mov	r1, r5
    aa8c:	e59f00d4 	ldr	r0, [pc, #212]	; ab68 <interleave_x_with_others+0x248>
    aa90:	eb000819 	bl	cafc <printk>
    aa94:	e35a0000 	cmp	sl, #0, 0
    aa98:	0a000024 	beq	ab30 <interleave_x_with_others+0x210>
    aa9c:	e59d3034 	ldr	r3, [sp, #52]	; 0x34
    aaa0:	e1530008 	cmp	r3, r8
    aaa4:	0a000021 	beq	ab30 <interleave_x_with_others+0x210>
    aaa8:	e7964105 	ldr	r4, [r6, r5, lsl #2]
    aaac:	e5947068 	ldr	r7, [r4, #104]	; 0x68
    aab0:	e5946050 	ldr	r6, [r4, #80]	; 0x50
    aab4:	e594306c 	ldr	r3, [r4, #108]	; 0x6c
    aab8:	e58d3028 	str	r3, [sp, #40]	; 0x28
    aabc:	e58d5024 	str	r5, [sp, #36]	; 0x24
    aac0:	e1a0c00d 	mov	ip, sp
    aac4:	e28de080 	add	lr, sp, #128, 0	; 0x80
    aac8:	e8be000f 	ldm	lr!, {r0, r1, r2, r3}
    aacc:	e8ac000f 	stmia	ip!, {r0, r1, r2, r3}
    aad0:	e8be000f 	ldm	lr!, {r0, r1, r2, r3}
    aad4:	e8ac000f 	stmia	ip!, {r0, r1, r2, r3}
    aad8:	e59e3000 	ldr	r3, [lr]
    aadc:	e58c3000 	str	r3, [ip]
    aae0:	e59d307c 	ldr	r3, [sp, #124]	; 0x7c
    aae4:	e1a02004 	mov	r2, r4
    aae8:	e1a01007 	mov	r1, r7
    aaec:	e1a00006 	mov	r0, r6
    aaf0:	ebfffe9d 	bl	a56c <reg_dump>
    aaf4:	ea00000d 	b	ab30 <interleave_x_with_others+0x210>
    aaf8:	e7963105 	ldr	r3, [r6, r5, lsl #2]
    aafc:	e593206c 	ldr	r2, [r3, #108]	; 0x6c
    ab00:	e1a01005 	mov	r1, r5
    ab04:	e59f0060 	ldr	r0, [pc, #96]	; ab6c <interleave_x_with_others+0x24c>
    ab08:	eb0007fb 	bl	cafc <printk>
    ab0c:	eaffffe0 	b	aa94 <interleave_x_with_others+0x174>
    ab10:	e59d2098 	ldr	r2, [sp, #152]	; 0x98
    ab14:	e3520000 	cmp	r2, #0, 0
    ab18:	0a000007 	beq	ab3c <interleave_x_with_others+0x21c>
    ab1c:	e59d2094 	ldr	r2, [sp, #148]	; 0x94
    ab20:	e7922105 	ldr	r2, [r2, r5, lsl #2]
    ab24:	e1a01005 	mov	r1, r5
    ab28:	e59f0040 	ldr	r0, [pc, #64]	; ab70 <interleave_x_with_others+0x250>
    ab2c:	eb0007f2 	bl	cafc <printk>
    ab30:	e1a0000b 	mov	r0, fp
    ab34:	e28dd054 	add	sp, sp, #84, 0	; 0x54
    ab38:	e8bd8ff0 	pop	{r4, r5, r6, r7, r8, r9, sl, fp, pc}
    ab3c:	e1a02003 	mov	r2, r3
    ab40:	e1a01005 	mov	r1, r5
    ab44:	e59f0028 	ldr	r0, [pc, #40]	; ab74 <interleave_x_with_others+0x254>
    ab48:	eb0007eb 	bl	cafc <printk>
    ab4c:	eafffff7 	b	ab30 <interleave_x_with_others+0x210>
    ab50:	0000e314 	.word	0x0000e314
    ab54:	0000e488 	.word	0x0000e488
    ab58:	0000e104 	.word	0x0000e104
    ab5c:	0000d658 	.word	0x0000d658
    ab60:	0000e31c 	.word	0x0000e31c
    ab64:	0000e354 	.word	0x0000e354
    ab68:	0000e388 	.word	0x0000e388
    ab6c:	0000e3ac 	.word	0x0000e3ac
    ab70:	0000e3c8 	.word	0x0000e3c8
    ab74:	0000e3f4 	.word	0x0000e3f4

0000ab78 <interleave_multiple>:
    ab78:	e24dd008 	sub	sp, sp, #8, 0
    ab7c:	e92d4bf0 	push	{r4, r5, r6, r7, r8, r9, fp, lr}
    ab80:	e28db01c 	add	fp, sp, #28, 0
    ab84:	e24dd048 	sub	sp, sp, #72, 0	; 0x48
    ab88:	e1a07000 	mov	r7, r0
    ab8c:	e1a08001 	mov	r8, r1
    ab90:	e1a05002 	mov	r5, r2
    ab94:	e58b3008 	str	r3, [fp, #8]
    ab98:	e59b3028 	ldr	r3, [fp, #40]	; 0x28
    ab9c:	e3530000 	cmp	r3, #0, 0
    aba0:	0a000015 	beq	abfc <interleave_multiple+0x84>
    aba4:	e59b002c 	ldr	r0, [fp, #44]	; 0x2c
    aba8:	ebfff9fe 	bl	93a8 <eqx_init_w_vm>
    abac:	e1a03105 	lsl	r3, r5, #2
    abb0:	e2833007 	add	r3, r3, #7, 0
    abb4:	e3c33007 	bic	r3, r3, #7, 0
    abb8:	e04dd003 	sub	sp, sp, r3
    abbc:	e28d6030 	add	r6, sp, #48, 0	; 0x30
    abc0:	e59b0010 	ldr	r0, [fp, #16]
    abc4:	ebfff974 	bl	919c <eqx_verbose>
    abc8:	e3a04000 	mov	r4, #0, 0
    abcc:	e1540005 	cmp	r4, r5
    abd0:	aa00000b 	bge	ac04 <interleave_multiple+0x8c>
    abd4:	e59b3008 	ldr	r3, [fp, #8]
    abd8:	e58d3000 	str	r3, [sp]
    abdc:	e3a03000 	mov	r3, #0, 0
    abe0:	e7982104 	ldr	r2, [r8, r4, lsl #2]
    abe4:	e7971104 	ldr	r1, [r7, r4, lsl #2]
    abe8:	e3a00003 	mov	r0, #3, 0
    abec:	ebfffe1b 	bl	a460 <run_single>
    abf0:	e7860104 	str	r0, [r6, r4, lsl #2]
    abf4:	e2844001 	add	r4, r4, #1, 0
    abf8:	eafffff3 	b	abcc <interleave_multiple+0x54>
    abfc:	ebfffb5e 	bl	997c <eqx_init>
    ac00:	eaffffe9 	b	abac <interleave_multiple+0x34>
    ac04:	e3a04000 	mov	r4, #0, 0
    ac08:	e1540005 	cmp	r4, r5
    ac0c:	aa000003 	bge	ac20 <interleave_multiple+0xa8>
    ac10:	e7960104 	ldr	r0, [r6, r4, lsl #2]
    ac14:	ebfff9bd 	bl	9310 <eqx_refork>
    ac18:	e2844001 	add	r4, r4, #1, 0
    ac1c:	eafffff9 	b	ac08 <interleave_multiple+0x90>
    ac20:	e3a03001 	mov	r3, #1, 0
    ac24:	e54b3030 	strb	r3, [fp, #-48]	; 0xffffffd0
    ac28:	e3a04000 	mov	r4, #0, 0
    ac2c:	e50b4024 	str	r4, [fp, #-36]	; 0xffffffdc
    ac30:	e51b3020 	ldr	r3, [fp, #-32]	; 0xffffffe0
    ac34:	e58d3000 	str	r3, [sp]
    ac38:	e24b3030 	sub	r3, fp, #48, 0	; 0x30
    ac3c:	e893000f 	ldm	r3, {r0, r1, r2, r3}
    ac40:	ebfffc64 	bl	9dd8 <set_scheduler_config>
    ac44:	ebfffb6f 	bl	9a08 <eqx_run_threads>
    ac48:	e1a09000 	mov	r9, r0
    ac4c:	ea000013 	b	aca0 <interleave_multiple+0x128>
    ac50:	e58d602c 	str	r6, [sp, #44]	; 0x2c
    ac54:	e28dc004 	add	ip, sp, #4, 0
    ac58:	e28be008 	add	lr, fp, #8, 0
    ac5c:	e8be000f 	ldm	lr!, {r0, r1, r2, r3}
    ac60:	e8ac000f 	stmia	ip!, {r0, r1, r2, r3}
    ac64:	e8be000f 	ldm	lr!, {r0, r1, r2, r3}
    ac68:	e8ac000f 	stmia	ip!, {r0, r1, r2, r3}
    ac6c:	e89e0003 	ldm	lr, {r0, r1}
    ac70:	e88c0003 	stm	ip, {r0, r1}
    ac74:	e58d5000 	str	r5, [sp]
    ac78:	e1a03008 	mov	r3, r8
    ac7c:	e1a02007 	mov	r2, r7
    ac80:	e1a01009 	mov	r1, r9
    ac84:	e1a00004 	mov	r0, r4
    ac88:	ebffff24 	bl	a920 <interleave_x_with_others>
    ac8c:	e1a02000 	mov	r2, r0
    ac90:	e1a01004 	mov	r1, r4
    ac94:	e59f002c 	ldr	r0, [pc, #44]	; acc8 <interleave_multiple+0x150>
    ac98:	eb000797 	bl	cafc <printk>
    ac9c:	e2844001 	add	r4, r4, #1, 0
    aca0:	e1540005 	cmp	r4, r5
    aca4:	baffffe9 	blt	ac50 <interleave_multiple+0xd8>
    aca8:	e1a01009 	mov	r1, r9
    acac:	e59f0018 	ldr	r0, [pc, #24]	; accc <interleave_multiple+0x154>
    acb0:	eb000791 	bl	cafc <printk>
    acb4:	e3a00001 	mov	r0, #1, 0
    acb8:	e24bd01c 	sub	sp, fp, #28, 0
    acbc:	e8bd4bf0 	pop	{r4, r5, r6, r7, r8, r9, fp, lr}
    acc0:	e28dd008 	add	sp, sp, #8, 0
    acc4:	e12fff1e 	bx	lr
    acc8:	0000e41c 	.word	0x0000e41c
    accc:	0000e44c 	.word	0x0000e44c

0000acd0 <control_reg1_sanity_check>:
    acd0:	e52de004 	push	{lr}		; (str lr, [sp, #-4]!)
    acd4:	e24dd00c 	sub	sp, sp, #12, 0
    acd8:	e5d02000 	ldrb	r2, [r0]
    acdc:	e2023070 	and	r3, r2, #112, 0	; 0x70
    ace0:	e3530070 	cmp	r3, #112, 0	; 0x70
    ace4:	1a000014 	bne	ad3c <control_reg1_sanity_check+0x6c>
    ace8:	e5d03002 	ldrb	r3, [r0, #2]
    acec:	e3130001 	tst	r3, #1, 0
    acf0:	0a000019 	beq	ad5c <control_reg1_sanity_check+0x8c>
    acf4:	e3130004 	tst	r3, #4, 0
    acf8:	0a00001f 	beq	ad7c <control_reg1_sanity_check+0xac>
    acfc:	e3130002 	tst	r3, #2, 0
    ad00:	1a000025 	bne	ad9c <control_reg1_sanity_check+0xcc>
    ad04:	e3130008 	tst	r3, #8, 0
    ad08:	1a00002b 	bne	adbc <control_reg1_sanity_check+0xec>
    ad0c:	e3130010 	tst	r3, #16, 0
    ad10:	1a000031 	bne	addc <control_reg1_sanity_check+0x10c>
    ad14:	e5d03003 	ldrb	r3, [r0, #3]
    ad18:	e3130004 	tst	r3, #4, 0
    ad1c:	1a000036 	bne	adfc <control_reg1_sanity_check+0x12c>
    ad20:	e5d03001 	ldrb	r3, [r0, #1]
    ad24:	e3130010 	tst	r3, #16, 0
    ad28:	1a00003b 	bne	ae1c <control_reg1_sanity_check+0x14c>
    ad2c:	e3120004 	tst	r2, #4, 0
    ad30:	1a000041 	bne	ae3c <control_reg1_sanity_check+0x16c>
    ad34:	e28dd00c 	add	sp, sp, #12, 0
    ad38:	e49df004 	pop	{pc}		; (ldr pc, [sp], #4)
    ad3c:	e59f3118 	ldr	r3, [pc, #280]	; ae5c <control_reg1_sanity_check+0x18c>
    ad40:	e58d3000 	str	r3, [sp]
    ad44:	e3a03044 	mov	r3, #68, 0	; 0x44
    ad48:	e59f2110 	ldr	r2, [pc, #272]	; ae60 <control_reg1_sanity_check+0x190>
    ad4c:	e59f1110 	ldr	r1, [pc, #272]	; ae64 <control_reg1_sanity_check+0x194>
    ad50:	e59f0110 	ldr	r0, [pc, #272]	; ae68 <control_reg1_sanity_check+0x198>
    ad54:	eb000768 	bl	cafc <printk>
    ad58:	eb000897 	bl	cfbc <clean_reboot>
    ad5c:	e59f3108 	ldr	r3, [pc, #264]	; ae6c <control_reg1_sanity_check+0x19c>
    ad60:	e58d3000 	str	r3, [sp]
    ad64:	e3a03045 	mov	r3, #69, 0	; 0x45
    ad68:	e59f20f0 	ldr	r2, [pc, #240]	; ae60 <control_reg1_sanity_check+0x190>
    ad6c:	e59f10f0 	ldr	r1, [pc, #240]	; ae64 <control_reg1_sanity_check+0x194>
    ad70:	e59f00f0 	ldr	r0, [pc, #240]	; ae68 <control_reg1_sanity_check+0x198>
    ad74:	eb000760 	bl	cafc <printk>
    ad78:	eb00088f 	bl	cfbc <clean_reboot>
    ad7c:	e59f30ec 	ldr	r3, [pc, #236]	; ae70 <control_reg1_sanity_check+0x1a0>
    ad80:	e58d3000 	str	r3, [sp]
    ad84:	e3a03046 	mov	r3, #70, 0	; 0x46
    ad88:	e59f20d0 	ldr	r2, [pc, #208]	; ae60 <control_reg1_sanity_check+0x190>
    ad8c:	e59f10d0 	ldr	r1, [pc, #208]	; ae64 <control_reg1_sanity_check+0x194>
    ad90:	e59f00d0 	ldr	r0, [pc, #208]	; ae68 <control_reg1_sanity_check+0x198>
    ad94:	eb000758 	bl	cafc <printk>
    ad98:	eb000887 	bl	cfbc <clean_reboot>
    ad9c:	e59f30d0 	ldr	r3, [pc, #208]	; ae74 <control_reg1_sanity_check+0x1a4>
    ada0:	e58d3000 	str	r3, [sp]
    ada4:	e3a03049 	mov	r3, #73, 0	; 0x49
    ada8:	e59f20b0 	ldr	r2, [pc, #176]	; ae60 <control_reg1_sanity_check+0x190>
    adac:	e59f10b0 	ldr	r1, [pc, #176]	; ae64 <control_reg1_sanity_check+0x194>
    adb0:	e59f00b0 	ldr	r0, [pc, #176]	; ae68 <control_reg1_sanity_check+0x198>
    adb4:	eb000750 	bl	cafc <printk>
    adb8:	eb00087f 	bl	cfbc <clean_reboot>
    adbc:	e59f30b4 	ldr	r3, [pc, #180]	; ae78 <control_reg1_sanity_check+0x1a8>
    adc0:	e58d3000 	str	r3, [sp]
    adc4:	e3a0304a 	mov	r3, #74, 0	; 0x4a
    adc8:	e59f2090 	ldr	r2, [pc, #144]	; ae60 <control_reg1_sanity_check+0x190>
    adcc:	e59f1090 	ldr	r1, [pc, #144]	; ae64 <control_reg1_sanity_check+0x194>
    add0:	e59f0090 	ldr	r0, [pc, #144]	; ae68 <control_reg1_sanity_check+0x198>
    add4:	eb000748 	bl	cafc <printk>
    add8:	eb000877 	bl	cfbc <clean_reboot>
    addc:	e59f3098 	ldr	r3, [pc, #152]	; ae7c <control_reg1_sanity_check+0x1ac>
    ade0:	e58d3000 	str	r3, [sp]
    ade4:	e3a0304b 	mov	r3, #75, 0	; 0x4b
    ade8:	e59f2070 	ldr	r2, [pc, #112]	; ae60 <control_reg1_sanity_check+0x190>
    adec:	e59f1070 	ldr	r1, [pc, #112]	; ae64 <control_reg1_sanity_check+0x194>
    adf0:	e59f0070 	ldr	r0, [pc, #112]	; ae68 <control_reg1_sanity_check+0x198>
    adf4:	eb000740 	bl	cafc <printk>
    adf8:	eb00086f 	bl	cfbc <clean_reboot>
    adfc:	e59f307c 	ldr	r3, [pc, #124]	; ae80 <control_reg1_sanity_check+0x1b0>
    ae00:	e58d3000 	str	r3, [sp]
    ae04:	e3a03054 	mov	r3, #84, 0	; 0x54
    ae08:	e59f2050 	ldr	r2, [pc, #80]	; ae60 <control_reg1_sanity_check+0x190>
    ae0c:	e59f1050 	ldr	r1, [pc, #80]	; ae64 <control_reg1_sanity_check+0x194>
    ae10:	e59f0050 	ldr	r0, [pc, #80]	; ae68 <control_reg1_sanity_check+0x198>
    ae14:	eb000738 	bl	cafc <printk>
    ae18:	eb000867 	bl	cfbc <clean_reboot>
    ae1c:	e59f3060 	ldr	r3, [pc, #96]	; ae84 <control_reg1_sanity_check+0x1b4>
    ae20:	e58d3000 	str	r3, [sp]
    ae24:	e3a03055 	mov	r3, #85, 0	; 0x55
    ae28:	e59f2030 	ldr	r2, [pc, #48]	; ae60 <control_reg1_sanity_check+0x190>
    ae2c:	e59f1030 	ldr	r1, [pc, #48]	; ae64 <control_reg1_sanity_check+0x194>
    ae30:	e59f0030 	ldr	r0, [pc, #48]	; ae68 <control_reg1_sanity_check+0x198>
    ae34:	eb000730 	bl	cafc <printk>
    ae38:	eb00085f 	bl	cfbc <clean_reboot>
    ae3c:	e59f3044 	ldr	r3, [pc, #68]	; ae88 <control_reg1_sanity_check+0x1b8>
    ae40:	e58d3000 	str	r3, [sp]
    ae44:	e3a03056 	mov	r3, #86, 0	; 0x56
    ae48:	e59f2010 	ldr	r2, [pc, #16]	; ae60 <control_reg1_sanity_check+0x190>
    ae4c:	e59f1010 	ldr	r1, [pc, #16]	; ae64 <control_reg1_sanity_check+0x194>
    ae50:	e59f0010 	ldr	r0, [pc, #16]	; ae68 <control_reg1_sanity_check+0x198>
    ae54:	eb000728 	bl	cafc <printk>
    ae58:	eb000857 	bl	cfbc <clean_reboot>
    ae5c:	0000e4b4 	.word	0x0000e4b4
    ae60:	0000eb1c 	.word	0x0000eb1c
    ae64:	0000e4a4 	.word	0x0000e4a4
    ae68:	0000d658 	.word	0x0000d658
    ae6c:	0000e4cc 	.word	0x0000e4cc
    ae70:	0000e4d8 	.word	0x0000e4d8
    ae74:	0000e4e4 	.word	0x0000e4e4
    ae78:	0000e4f4 	.word	0x0000e4f4
    ae7c:	0000e504 	.word	0x0000e504
    ae80:	0000e510 	.word	0x0000e510
    ae84:	0000e520 	.word	0x0000e520
    ae88:	0000e534 	.word	0x0000e534

0000ae8c <fld_check_valid>:
    ae8c:	e52de004 	push	{lr}		; (str lr, [sp, #-4]!)
    ae90:	e24dd00c 	sub	sp, sp, #12, 0
    ae94:	e5d03002 	ldrb	r3, [r0, #2]
    ae98:	e3130008 	tst	r3, #8, 0
    ae9c:	1a00000c 	bne	aed4 <fld_check_valid+0x48>
    aea0:	e5d02000 	ldrb	r2, [r0]
    aea4:	e2022003 	and	r2, r2, #3, 0
    aea8:	e3520002 	cmp	r2, #2, 0
    aeac:	1a000010 	bne	aef4 <fld_check_valid+0x68>
    aeb0:	e3130001 	tst	r3, #1, 0
    aeb4:	1a000016 	bne	af14 <fld_check_valid+0x88>
    aeb8:	e5d02001 	ldrb	r2, [r0, #1]
    aebc:	e3120002 	tst	r2, #2, 0
    aec0:	1a00001b 	bne	af34 <fld_check_valid+0xa8>
    aec4:	e3130004 	tst	r3, #4, 0
    aec8:	1a000021 	bne	af54 <fld_check_valid+0xc8>
    aecc:	e28dd00c 	add	sp, sp, #12, 0
    aed0:	e49df004 	pop	{pc}		; (ldr pc, [sp], #4)
    aed4:	e59f3098 	ldr	r3, [pc, #152]	; af74 <fld_check_valid+0xe8>
    aed8:	e58d3000 	str	r3, [sp]
    aedc:	e3a03086 	mov	r3, #134, 0	; 0x86
    aee0:	e59f2090 	ldr	r2, [pc, #144]	; af78 <fld_check_valid+0xec>
    aee4:	e59f1090 	ldr	r1, [pc, #144]	; af7c <fld_check_valid+0xf0>
    aee8:	e59f0090 	ldr	r0, [pc, #144]	; af80 <fld_check_valid+0xf4>
    aeec:	eb000702 	bl	cafc <printk>
    aef0:	eb000831 	bl	cfbc <clean_reboot>
    aef4:	e59f3088 	ldr	r3, [pc, #136]	; af84 <fld_check_valid+0xf8>
    aef8:	e58d3000 	str	r3, [sp]
    aefc:	e3a03087 	mov	r3, #135, 0	; 0x87
    af00:	e59f2070 	ldr	r2, [pc, #112]	; af78 <fld_check_valid+0xec>
    af04:	e59f1070 	ldr	r1, [pc, #112]	; af7c <fld_check_valid+0xf0>
    af08:	e59f0070 	ldr	r0, [pc, #112]	; af80 <fld_check_valid+0xf4>
    af0c:	eb0006fa 	bl	cafc <printk>
    af10:	eb000829 	bl	cfbc <clean_reboot>
    af14:	e59f306c 	ldr	r3, [pc, #108]	; af88 <fld_check_valid+0xfc>
    af18:	e58d3000 	str	r3, [sp]
    af1c:	e3a03088 	mov	r3, #136, 0	; 0x88
    af20:	e59f2050 	ldr	r2, [pc, #80]	; af78 <fld_check_valid+0xec>
    af24:	e59f1050 	ldr	r1, [pc, #80]	; af7c <fld_check_valid+0xf0>
    af28:	e59f0050 	ldr	r0, [pc, #80]	; af80 <fld_check_valid+0xf4>
    af2c:	eb0006f2 	bl	cafc <printk>
    af30:	eb000821 	bl	cfbc <clean_reboot>
    af34:	e59f3050 	ldr	r3, [pc, #80]	; af8c <fld_check_valid+0x100>
    af38:	e58d3000 	str	r3, [sp]
    af3c:	e3a03089 	mov	r3, #137, 0	; 0x89
    af40:	e59f2030 	ldr	r2, [pc, #48]	; af78 <fld_check_valid+0xec>
    af44:	e59f1030 	ldr	r1, [pc, #48]	; af7c <fld_check_valid+0xf0>
    af48:	e59f0030 	ldr	r0, [pc, #48]	; af80 <fld_check_valid+0xf4>
    af4c:	eb0006ea 	bl	cafc <printk>
    af50:	eb000819 	bl	cfbc <clean_reboot>
    af54:	e59f3034 	ldr	r3, [pc, #52]	; af90 <fld_check_valid+0x104>
    af58:	e58d3000 	str	r3, [sp]
    af5c:	e3a0308f 	mov	r3, #143, 0	; 0x8f
    af60:	e59f2010 	ldr	r2, [pc, #16]	; af78 <fld_check_valid+0xec>
    af64:	e59f1010 	ldr	r1, [pc, #16]	; af7c <fld_check_valid+0xf0>
    af68:	e59f0010 	ldr	r0, [pc, #16]	; af80 <fld_check_valid+0xf4>
    af6c:	eb0006e2 	bl	cafc <printk>
    af70:	eb000811 	bl	cfbc <clean_reboot>
    af74:	0000e54c 	.word	0x0000e54c
    af78:	0000eb38 	.word	0x0000eb38
    af7c:	0000e4a4 	.word	0x0000e4a4
    af80:	0000d658 	.word	0x0000d658
    af84:	0000e55c 	.word	0x0000e55c
    af88:	0000e56c 	.word	0x0000e56c
    af8c:	0000e578 	.word	0x0000e578
    af90:	0000e584 	.word	0x0000e584

0000af94 <control_reg1_check_offsets>:
    af94:	e52de004 	push	{lr}		; (str lr, [sp, #-4]!)
    af98:	e49df004 	pop	{pc}		; (ldr pc, [sp], #4)

0000af9c <tlb_config_check_offsets>:
    af9c:	e52de004 	push	{lr}		; (str lr, [sp, #-4]!)
    afa0:	e49df004 	pop	{pc}		; (ldr pc, [sp], #4)

0000afa4 <mmu_be_quiet>:
    afa4:	e59f3008 	ldr	r3, [pc, #8]	; afb4 <mmu_be_quiet+0x10>
    afa8:	e3a02001 	mov	r2, #1, 0
    afac:	e5832000 	str	r2, [r3]
    afb0:	e12fff1e 	bx	lr
    afb4:	0000f8a4 	.word	0x0000f8a4

0000afb8 <hash_print>:
    afb8:	e1a03002 	mov	r3, r2
    afbc:	e59f2108 	ldr	r2, [pc, #264]	; b0cc <hash_print+0x114>
    afc0:	e5922000 	ldr	r2, [r2]
    afc4:	e3520000 	cmp	r2, #0, 0
    afc8:	112fff1e 	bxne	lr
    afcc:	e92d4070 	push	{r4, r5, r6, lr}
    afd0:	e16f2f11 	clz	r2, r1
    afd4:	e1a022a2 	lsr	r2, r2, #5
    afd8:	e3530000 	cmp	r3, #0, 0
    afdc:	03a02001 	moveq	r2, #1, 0
    afe0:	e3520000 	cmp	r2, #0, 0
    afe4:	1a000036 	bne	b0c4 <hash_print+0x10c>
    afe8:	e2035003 	and	r5, r3, #3, 0
    afec:	e1a0e123 	lsr	lr, r3, #2
    aff0:	e1a0c003 	mov	ip, r3
    aff4:	ea00000b 	b	b028 <hash_print+0x70>
    aff8:	e5d14001 	ldrb	r4, [r1, #1]
    affc:	e5d12000 	ldrb	r2, [r1]
    b000:	e1822404 	orr	r2, r2, r4, lsl #8
    b004:	e082200c 	add	r2, r2, ip
    b008:	e5d14003 	ldrb	r4, [r1, #3]
    b00c:	e5d1c002 	ldrb	ip, [r1, #2]
    b010:	e18cc404 	orr	ip, ip, r4, lsl #8
    b014:	e022c58c 	eor	ip, r2, ip, lsl #11
    b018:	e02cc802 	eor	ip, ip, r2, lsl #16
    b01c:	e2811004 	add	r1, r1, #4, 0
    b020:	e08cc5ac 	add	ip, ip, ip, lsr #11
    b024:	e24ee001 	sub	lr, lr, #1, 0
    b028:	e35e0000 	cmp	lr, #0, 0
    b02c:	1afffff1 	bne	aff8 <hash_print+0x40>
    b030:	e3550002 	cmp	r5, #2, 0
    b034:	0a000016 	beq	b094 <hash_print+0xdc>
    b038:	e3550003 	cmp	r5, #3, 0
    b03c:	0a00000b 	beq	b070 <hash_print+0xb8>
    b040:	e3550001 	cmp	r5, #1, 0
    b044:	0a000019 	beq	b0b0 <hash_print+0xf8>
    b048:	e02c118c 	eor	r1, ip, ip, lsl #3
    b04c:	e08112a1 	add	r1, r1, r1, lsr #5
    b050:	e0211201 	eor	r1, r1, r1, lsl #4
    b054:	e08118a1 	add	r1, r1, r1, lsr #17
    b058:	e0211c81 	eor	r1, r1, r1, lsl #25
    b05c:	e0812321 	add	r2, r1, r1, lsr #6
    b060:	e1a01000 	mov	r1, r0
    b064:	e59f0064 	ldr	r0, [pc, #100]	; b0d0 <hash_print+0x118>
    b068:	eb0006a3 	bl	cafc <printk>
    b06c:	e8bd8070 	pop	{r4, r5, r6, pc}
    b070:	e5d1e001 	ldrb	lr, [r1, #1]
    b074:	e5d12000 	ldrb	r2, [r1]
    b078:	e182240e 	orr	r2, r2, lr, lsl #8
    b07c:	e08cc002 	add	ip, ip, r2
    b080:	e02cc80c 	eor	ip, ip, ip, lsl #16
    b084:	e1d120d2 	ldrsb	r2, [r1, #2]
    b088:	e02cc902 	eor	ip, ip, r2, lsl #18
    b08c:	e08cc5ac 	add	ip, ip, ip, lsr #11
    b090:	eaffffec 	b	b048 <hash_print+0x90>
    b094:	e5d1e001 	ldrb	lr, [r1, #1]
    b098:	e5d12000 	ldrb	r2, [r1]
    b09c:	e182240e 	orr	r2, r2, lr, lsl #8
    b0a0:	e08cc002 	add	ip, ip, r2
    b0a4:	e02cc58c 	eor	ip, ip, ip, lsl #11
    b0a8:	e08cc8ac 	add	ip, ip, ip, lsr #17
    b0ac:	eaffffe5 	b	b048 <hash_print+0x90>
    b0b0:	e1d120d0 	ldrsb	r2, [r1]
    b0b4:	e08cc002 	add	ip, ip, r2
    b0b8:	e02cc50c 	eor	ip, ip, ip, lsl #10
    b0bc:	e08cc0ac 	add	ip, ip, ip, lsr #1
    b0c0:	eaffffe0 	b	b048 <hash_print+0x90>
    b0c4:	e3a02000 	mov	r2, #0, 0
    b0c8:	eaffffe4 	b	b060 <hash_print+0xa8>
    b0cc:	0000f8a4 	.word	0x0000f8a4
    b0d0:	0000e8c4 	.word	0x0000e8c4

0000b0d4 <domain_acl_print>:
    b0d4:	e59f3028 	ldr	r3, [pc, #40]	; b104 <domain_acl_print+0x30>
    b0d8:	e5933000 	ldr	r3, [r3]
    b0dc:	e3530000 	cmp	r3, #0, 0
    b0e0:	112fff1e 	bxne	lr
    b0e4:	e92d4010 	push	{r4, lr}
    b0e8:	e59f0018 	ldr	r0, [pc, #24]	; b108 <domain_acl_print+0x34>
    b0ec:	eb000682 	bl	cafc <printk>
    b0f0:	eb0003c9 	bl	c01c <domain_access_ctrl_get>
    b0f4:	e1a01000 	mov	r1, r0
    b0f8:	e59f000c 	ldr	r0, [pc, #12]	; b10c <domain_acl_print+0x38>
    b0fc:	eb00067e 	bl	cafc <printk>
    b100:	e8bd8010 	pop	{r4, pc}
    b104:	0000f8a4 	.word	0x0000f8a4
    b108:	0000e8e0 	.word	0x0000e8e0
    b10c:	0000e8f8 	.word	0x0000e8f8

0000b110 <control_reg1_print>:
    b110:	e92d4070 	push	{r4, r5, r6, lr}
    b114:	e1a04000 	mov	r4, r0
    b118:	ebfffeec 	bl	acd0 <control_reg1_sanity_check>
    b11c:	e59f01a4 	ldr	r0, [pc, #420]	; b2c8 <control_reg1_print+0x1b8>
    b120:	eb000675 	bl	cafc <printk>
    b124:	e5d41003 	ldrb	r1, [r4, #3]
    b128:	e1a012a1 	lsr	r1, r1, #5
    b12c:	e59f5198 	ldr	r5, [pc, #408]	; b2cc <control_reg1_print+0x1bc>
    b130:	e59f2198 	ldr	r2, [pc, #408]	; b2d0 <control_reg1_print+0x1c0>
    b134:	e2011001 	and	r1, r1, #1, 0
    b138:	e1a00005 	mov	r0, r5
    b13c:	eb00066e 	bl	cafc <printk>
    b140:	e5d41003 	ldrb	r1, [r4, #3]
    b144:	e1a01221 	lsr	r1, r1, #4
    b148:	e59f2184 	ldr	r2, [pc, #388]	; b2d4 <control_reg1_print+0x1c4>
    b14c:	e2011001 	and	r1, r1, #1, 0
    b150:	e1a00005 	mov	r0, r5
    b154:	eb000668 	bl	cafc <printk>
    b158:	e5d41003 	ldrb	r1, [r4, #3]
    b15c:	e1a01121 	lsr	r1, r1, #2
    b160:	e59f2170 	ldr	r2, [pc, #368]	; b2d8 <control_reg1_print+0x1c8>
    b164:	e2011001 	and	r1, r1, #1, 0
    b168:	e1a00005 	mov	r0, r5
    b16c:	eb000662 	bl	cafc <printk>
    b170:	e5d41003 	ldrb	r1, [r4, #3]
    b174:	e1a010a1 	lsr	r1, r1, #1
    b178:	e59f215c 	ldr	r2, [pc, #348]	; b2dc <control_reg1_print+0x1cc>
    b17c:	e2011001 	and	r1, r1, #1, 0
    b180:	e1a00005 	mov	r0, r5
    b184:	eb00065c 	bl	cafc <printk>
    b188:	e5d41003 	ldrb	r1, [r4, #3]
    b18c:	e59f214c 	ldr	r2, [pc, #332]	; b2e0 <control_reg1_print+0x1d0>
    b190:	e2011001 	and	r1, r1, #1, 0
    b194:	e1a00005 	mov	r0, r5
    b198:	eb000657 	bl	cafc <printk>
    b19c:	e5d41002 	ldrb	r1, [r4, #2]
    b1a0:	e59f213c 	ldr	r2, [pc, #316]	; b2e4 <control_reg1_print+0x1d4>
    b1a4:	e1a013a1 	lsr	r1, r1, #7
    b1a8:	e1a00005 	mov	r0, r5
    b1ac:	eb000652 	bl	cafc <printk>
    b1b0:	e5d41002 	ldrb	r1, [r4, #2]
    b1b4:	e1a01321 	lsr	r1, r1, #6
    b1b8:	e59f2128 	ldr	r2, [pc, #296]	; b2e8 <control_reg1_print+0x1d8>
    b1bc:	e2011001 	and	r1, r1, #1, 0
    b1c0:	e1a00005 	mov	r0, r5
    b1c4:	eb00064c 	bl	cafc <printk>
    b1c8:	e5d41002 	ldrb	r1, [r4, #2]
    b1cc:	e1a012a1 	lsr	r1, r1, #5
    b1d0:	e59f2114 	ldr	r2, [pc, #276]	; b2ec <control_reg1_print+0x1dc>
    b1d4:	e2011001 	and	r1, r1, #1, 0
    b1d8:	e1a00005 	mov	r0, r5
    b1dc:	eb000646 	bl	cafc <printk>
    b1e0:	e5d41001 	ldrb	r1, [r4, #1]
    b1e4:	e1a01321 	lsr	r1, r1, #6
    b1e8:	e59f2100 	ldr	r2, [pc, #256]	; b2f0 <control_reg1_print+0x1e0>
    b1ec:	e2011001 	and	r1, r1, #1, 0
    b1f0:	e1a00005 	mov	r0, r5
    b1f4:	eb000640 	bl	cafc <printk>
    b1f8:	e5d41001 	ldrb	r1, [r4, #1]
    b1fc:	e1a01221 	lsr	r1, r1, #4
    b200:	e59f20ec 	ldr	r2, [pc, #236]	; b2f4 <control_reg1_print+0x1e4>
    b204:	e2011001 	and	r1, r1, #1, 0
    b208:	e1a00005 	mov	r0, r5
    b20c:	eb00063a 	bl	cafc <printk>
    b210:	e5d41001 	ldrb	r1, [r4, #1]
    b214:	e1a011a1 	lsr	r1, r1, #3
    b218:	e59f20d8 	ldr	r2, [pc, #216]	; b2f8 <control_reg1_print+0x1e8>
    b21c:	e2011001 	and	r1, r1, #1, 0
    b220:	e1a00005 	mov	r0, r5
    b224:	eb000634 	bl	cafc <printk>
    b228:	e5d41001 	ldrb	r1, [r4, #1]
    b22c:	e1a010a1 	lsr	r1, r1, #1
    b230:	e59f20c4 	ldr	r2, [pc, #196]	; b2fc <control_reg1_print+0x1ec>
    b234:	e2011001 	and	r1, r1, #1, 0
    b238:	e1a00005 	mov	r0, r5
    b23c:	eb00062e 	bl	cafc <printk>
    b240:	e5d41001 	ldrb	r1, [r4, #1]
    b244:	e59f20b4 	ldr	r2, [pc, #180]	; b300 <control_reg1_print+0x1f0>
    b248:	e2011001 	and	r1, r1, #1, 0
    b24c:	e1a00005 	mov	r0, r5
    b250:	eb000629 	bl	cafc <printk>
    b254:	e5d41000 	ldrb	r1, [r4]
    b258:	e59f20a4 	ldr	r2, [pc, #164]	; b304 <control_reg1_print+0x1f4>
    b25c:	e1a013a1 	lsr	r1, r1, #7
    b260:	e1a00005 	mov	r0, r5
    b264:	eb000624 	bl	cafc <printk>
    b268:	e5d41000 	ldrb	r1, [r4]
    b26c:	e1a011a1 	lsr	r1, r1, #3
    b270:	e59f2090 	ldr	r2, [pc, #144]	; b308 <control_reg1_print+0x1f8>
    b274:	e2011001 	and	r1, r1, #1, 0
    b278:	e1a00005 	mov	r0, r5
    b27c:	eb00061e 	bl	cafc <printk>
    b280:	e5d41000 	ldrb	r1, [r4]
    b284:	e1a01121 	lsr	r1, r1, #2
    b288:	e59f207c 	ldr	r2, [pc, #124]	; b30c <control_reg1_print+0x1fc>
    b28c:	e2011001 	and	r1, r1, #1, 0
    b290:	e1a00005 	mov	r0, r5
    b294:	eb000618 	bl	cafc <printk>
    b298:	e5d41000 	ldrb	r1, [r4]
    b29c:	e1a010a1 	lsr	r1, r1, #1
    b2a0:	e59f2068 	ldr	r2, [pc, #104]	; b310 <control_reg1_print+0x200>
    b2a4:	e2011001 	and	r1, r1, #1, 0
    b2a8:	e1a00005 	mov	r0, r5
    b2ac:	eb000612 	bl	cafc <printk>
    b2b0:	e5d41000 	ldrb	r1, [r4]
    b2b4:	e59f2058 	ldr	r2, [pc, #88]	; b314 <control_reg1_print+0x204>
    b2b8:	e2011001 	and	r1, r1, #1, 0
    b2bc:	e1a00005 	mov	r0, r5
    b2c0:	eb00060d 	bl	cafc <printk>
    b2c4:	e8bd8070 	pop	{r4, r5, r6, pc}
    b2c8:	0000e900 	.word	0x0000e900
    b2cc:	0000e918 	.word	0x0000e918
    b2d0:	0000e83c 	.word	0x0000e83c
    b2d4:	0000e814 	.word	0x0000e814
    b2d8:	0000e514 	.word	0x0000e514
    b2dc:	0000e7e4 	.word	0x0000e7e4
    b2e0:	0000e7cc 	.word	0x0000e7cc
    b2e4:	0000e7ac 	.word	0x0000e7ac
    b2e8:	0000e790 	.word	0x0000e790
    b2ec:	0000e774 	.word	0x0000e774
    b2f0:	0000e748 	.word	0x0000e748
    b2f4:	0000e524 	.word	0x0000e524
    b2f8:	0000e6d8 	.word	0x0000e6d8
    b2fc:	0000e6a4 	.word	0x0000e6a4
    b300:	0000e688 	.word	0x0000e688
    b304:	0000e66c 	.word	0x0000e66c
    b308:	0000e64c 	.word	0x0000e64c
    b30c:	0000e538 	.word	0x0000e538
    b310:	0000e60c 	.word	0x0000e60c
    b314:	0000ef1c 	.word	0x0000ef1c

0000b318 <tlb_config_print>:
    b318:	e92d4010 	push	{r4, lr}
    b31c:	e1a04000 	mov	r4, r0
    b320:	e59f002c 	ldr	r0, [pc, #44]	; b354 <tlb_config_print+0x3c>
    b324:	eb0005f4 	bl	cafc <printk>
    b328:	e5d41000 	ldrb	r1, [r4]
    b32c:	e2011001 	and	r1, r1, #1, 0
    b330:	e59f0020 	ldr	r0, [pc, #32]	; b358 <tlb_config_print+0x40>
    b334:	eb0005f0 	bl	cafc <printk>
    b338:	e5d41001 	ldrb	r1, [r4, #1]
    b33c:	e59f0018 	ldr	r0, [pc, #24]	; b35c <tlb_config_print+0x44>
    b340:	eb0005ed 	bl	cafc <printk>
    b344:	e5d41002 	ldrb	r1, [r4, #2]
    b348:	e59f0010 	ldr	r0, [pc, #16]	; b360 <tlb_config_print+0x48>
    b34c:	eb0005ea 	bl	cafc <printk>
    b350:	e8bd8010 	pop	{r4, pc}
    b354:	0000e924 	.word	0x0000e924
    b358:	0000e934 	.word	0x0000e934
    b35c:	0000e944 	.word	0x0000e944
    b360:	0000e95c 	.word	0x0000e95c

0000b364 <fld_mk>:
    b364:	e3a00002 	mov	r0, #2, 0
    b368:	e12fff1e 	bx	lr

0000b36c <fld_check_offsets>:
    b36c:	e52de004 	push	{lr}		; (str lr, [sp, #-4]!)
    b370:	e24dd024 	sub	sp, sp, #36, 0	; 0x24
    b374:	ebfffffa 	bl	b364 <fld_mk>
    b378:	e58d001c 	str	r0, [sp, #28]
    b37c:	e28d001c 	add	r0, sp, #28, 0
    b380:	ebfffec1 	bl	ae8c <fld_check_valid>
    b384:	e28dd024 	add	sp, sp, #36, 0	; 0x24
    b388:	e49df004 	pop	{pc}		; (ldr pc, [sp], #4)

0000b38c <vm_pte_print>:
    b38c:	e92d4030 	push	{r4, r5, lr}
    b390:	e24dd00c 	sub	sp, sp, #12, 0
    b394:	e59f31dc 	ldr	r3, [pc, #476]	; b578 <vm_pte_print+0x1ec>
    b398:	e5933000 	ldr	r3, [r3]
    b39c:	e3530000 	cmp	r3, #0, 0
    b3a0:	1a000066 	bne	b540 <vm_pte_print+0x1b4>
    b3a4:	e1a05000 	mov	r5, r0
    b3a8:	e1a04001 	mov	r4, r1
    b3ac:	e59f01c8 	ldr	r0, [pc, #456]	; b57c <vm_pte_print+0x1f0>
    b3b0:	eb0005d1 	bl	cafc <printk>
    b3b4:	e0441005 	sub	r1, r4, r5
    b3b8:	e1a02004 	mov	r2, r4
    b3bc:	e1a01141 	asr	r1, r1, #2
    b3c0:	e59f01b8 	ldr	r0, [pc, #440]	; b580 <vm_pte_print+0x1f4>
    b3c4:	eb0005cc 	bl	cafc <printk>
    b3c8:	e3a02004 	mov	r2, #4, 0
    b3cc:	e1a01004 	mov	r1, r4
    b3d0:	e59f01ac 	ldr	r0, [pc, #428]	; b584 <vm_pte_print+0x1f8>
    b3d4:	ebfffef7 	bl	afb8 <hash_print>
    b3d8:	e1d410b2 	ldrh	r1, [r4, #2]
    b3dc:	e59f21a4 	ldr	r2, [pc, #420]	; b588 <vm_pte_print+0x1fc>
    b3e0:	e1a01221 	lsr	r1, r1, #4
    b3e4:	e59f01a0 	ldr	r0, [pc, #416]	; b58c <vm_pte_print+0x200>
    b3e8:	eb0005c3 	bl	cafc <printk>
    b3ec:	e1d430b2 	ldrh	r3, [r4, #2]
    b3f0:	e1a01223 	lsr	r1, r3, #4
    b3f4:	e353008f 	cmp	r3, #143, 0	; 0x8f
    b3f8:	8a000058 	bhi	b560 <vm_pte_print+0x1d4>
    b3fc:	e1d410b2 	ldrh	r1, [r4, #2]
    b400:	e1a01221 	lsr	r1, r1, #4
    b404:	e1a01a01 	lsl	r1, r1, #20
    b408:	e59f0180 	ldr	r0, [pc, #384]	; b590 <vm_pte_print+0x204>
    b40c:	eb0005ba 	bl	cafc <printk>
    b410:	e59f017c 	ldr	r0, [pc, #380]	; b594 <vm_pte_print+0x208>
    b414:	eb0005b8 	bl	cafc <printk>
    b418:	e5d41002 	ldrb	r1, [r4, #2]
    b41c:	e1a010a1 	lsr	r1, r1, #1
    b420:	e59f5164 	ldr	r5, [pc, #356]	; b58c <vm_pte_print+0x200>
    b424:	e59f216c 	ldr	r2, [pc, #364]	; b598 <vm_pte_print+0x20c>
    b428:	e2011001 	and	r1, r1, #1, 0
    b42c:	e1a00005 	mov	r0, r5
    b430:	eb0005b1 	bl	cafc <printk>
    b434:	e5d41002 	ldrb	r1, [r4, #2]
    b438:	e59f215c 	ldr	r2, [pc, #348]	; b59c <vm_pte_print+0x210>
    b43c:	e2011001 	and	r1, r1, #1, 0
    b440:	e1a00005 	mov	r0, r5
    b444:	eb0005ac 	bl	cafc <printk>
    b448:	e5d41001 	ldrb	r1, [r4, #1]
    b44c:	e59f214c 	ldr	r2, [pc, #332]	; b5a0 <vm_pte_print+0x214>
    b450:	e1a013a1 	lsr	r1, r1, #7
    b454:	e1a00005 	mov	r0, r5
    b458:	eb0005a7 	bl	cafc <printk>
    b45c:	e5d41001 	ldrb	r1, [r4, #1]
    b460:	e1a01221 	lsr	r1, r1, #4
    b464:	e59f2138 	ldr	r2, [pc, #312]	; b5a4 <vm_pte_print+0x218>
    b468:	e2011007 	and	r1, r1, #7, 0
    b46c:	e1a00005 	mov	r0, r5
    b470:	eb0005a1 	bl	cafc <printk>
    b474:	e5d41001 	ldrb	r1, [r4, #1]
    b478:	e1a01121 	lsr	r1, r1, #2
    b47c:	e59f2124 	ldr	r2, [pc, #292]	; b5a8 <vm_pte_print+0x21c>
    b480:	e2011003 	and	r1, r1, #3, 0
    b484:	e1a00005 	mov	r0, r5
    b488:	eb00059b 	bl	cafc <printk>
    b48c:	e5d41001 	ldrb	r1, [r4, #1]
    b490:	e1a010a1 	lsr	r1, r1, #1
    b494:	e59f2110 	ldr	r2, [pc, #272]	; b5ac <vm_pte_print+0x220>
    b498:	e2011001 	and	r1, r1, #1, 0
    b49c:	e1a00005 	mov	r0, r5
    b4a0:	eb000595 	bl	cafc <printk>
    b4a4:	e1d410b0 	ldrh	r1, [r4]
    b4a8:	e1a012a1 	lsr	r1, r1, #5
    b4ac:	e59f20fc 	ldr	r2, [pc, #252]	; b5b0 <vm_pte_print+0x224>
    b4b0:	e201100f 	and	r1, r1, #15, 0
    b4b4:	e1a00005 	mov	r0, r5
    b4b8:	eb00058f 	bl	cafc <printk>
    b4bc:	e1d410b0 	ldrh	r1, [r4]
    b4c0:	e1a012a1 	lsr	r1, r1, #5
    b4c4:	e201100f 	and	r1, r1, #15, 0
    b4c8:	e3510008 	cmp	r1, #8, 0
    b4cc:	8a000026 	bhi	b56c <vm_pte_print+0x1e0>
    b4d0:	e5d41000 	ldrb	r1, [r4]
    b4d4:	e1a01221 	lsr	r1, r1, #4
    b4d8:	e59f50ac 	ldr	r5, [pc, #172]	; b58c <vm_pte_print+0x200>
    b4dc:	e59f20d0 	ldr	r2, [pc, #208]	; b5b4 <vm_pte_print+0x228>
    b4e0:	e2011001 	and	r1, r1, #1, 0
    b4e4:	e1a00005 	mov	r0, r5
    b4e8:	eb000583 	bl	cafc <printk>
    b4ec:	e5d41000 	ldrb	r1, [r4]
    b4f0:	e1a011a1 	lsr	r1, r1, #3
    b4f4:	e59f20bc 	ldr	r2, [pc, #188]	; b5b8 <vm_pte_print+0x22c>
    b4f8:	e2011001 	and	r1, r1, #1, 0
    b4fc:	e1a00005 	mov	r0, r5
    b500:	eb00057d 	bl	cafc <printk>
    b504:	e5d41000 	ldrb	r1, [r4]
    b508:	e1a01121 	lsr	r1, r1, #2
    b50c:	e59f20a8 	ldr	r2, [pc, #168]	; b5bc <vm_pte_print+0x230>
    b510:	e2011001 	and	r1, r1, #1, 0
    b514:	e1a00005 	mov	r0, r5
    b518:	eb000577 	bl	cafc <printk>
    b51c:	e5d41000 	ldrb	r1, [r4]
    b520:	e59f2098 	ldr	r2, [pc, #152]	; b5c0 <vm_pte_print+0x234>
    b524:	e2011003 	and	r1, r1, #3, 0
    b528:	e1a00005 	mov	r0, r5
    b52c:	eb000572 	bl	cafc <printk>
    b530:	e1a00004 	mov	r0, r4
    b534:	ebfffe54 	bl	ae8c <fld_check_valid>
    b538:	e28dd00c 	add	sp, sp, #12, 0
    b53c:	e8bd8030 	pop	{r4, r5, pc}
    b540:	e59f307c 	ldr	r3, [pc, #124]	; b5c4 <vm_pte_print+0x238>
    b544:	e58d3000 	str	r3, [sp]
    b548:	e3a030b0 	mov	r3, #176, 0	; 0xb0
    b54c:	e59f2074 	ldr	r2, [pc, #116]	; b5c8 <vm_pte_print+0x23c>
    b550:	e59f1074 	ldr	r1, [pc, #116]	; b5cc <vm_pte_print+0x240>
    b554:	e59f0074 	ldr	r0, [pc, #116]	; b5d0 <vm_pte_print+0x244>
    b558:	eb000567 	bl	cafc <printk>
    b55c:	eb000696 	bl	cfbc <clean_reboot>
    b560:	e59f006c 	ldr	r0, [pc, #108]	; b5d4 <vm_pte_print+0x248>
    b564:	eb000564 	bl	cafc <printk>
    b568:	eaffffa3 	b	b3fc <vm_pte_print+0x70>
    b56c:	e59f0060 	ldr	r0, [pc, #96]	; b5d4 <vm_pte_print+0x248>
    b570:	eb000561 	bl	cafc <printk>
    b574:	eaffffd5 	b	b4d0 <vm_pte_print+0x144>
    b578:	0000f8a4 	.word	0x0000f8a4
    b57c:	0000ea84 	.word	0x0000ea84
    b580:	0000eaa4 	.word	0x0000eaa4
    b584:	0000ead0 	.word	0x0000ead0
    b588:	0000ea68 	.word	0x0000ea68
    b58c:	0000e918 	.word	0x0000e918
    b590:	0000eae4 	.word	0x0000eae4
    b594:	0000eaf4 	.word	0x0000eaf4
    b598:	0000ea34 	.word	0x0000ea34
    b59c:	0000ea24 	.word	0x0000ea24
    b5a0:	0000ea14 	.word	0x0000ea14
    b5a4:	0000ea00 	.word	0x0000ea00
    b5a8:	0000e9ec 	.word	0x0000e9ec
    b5ac:	0000e9dc 	.word	0x0000e9dc
    b5b0:	0000e9c4 	.word	0x0000e9c4
    b5b4:	0000e9b0 	.word	0x0000e9b0
    b5b8:	0000e9a0 	.word	0x0000e9a0
    b5bc:	0000ecf0 	.word	0x0000ecf0
    b5c0:	0000e984 	.word	0x0000e984
    b5c4:	0000ea78 	.word	0x0000ea78
    b5c8:	0000eb94 	.word	0x0000eb94
    b5cc:	0000e4a4 	.word	0x0000e4a4
    b5d0:	0000d658 	.word	0x0000d658
    b5d4:	0000eadc 	.word	0x0000eadc

0000b5d8 <check_vm_structs>:
    b5d8:	e92d4010 	push	{r4, lr}
    b5dc:	ebfffe6c 	bl	af94 <control_reg1_check_offsets>
    b5e0:	ebfffe6d 	bl	af9c <tlb_config_check_offsets>
    b5e4:	ebffff60 	bl	b36c <fld_check_offsets>
    b5e8:	e8bd8010 	pop	{r4, pc}

0000b5ec <domain_access_ctrl_set>:
    b5ec:	e92d4010 	push	{r4, lr}
    b5f0:	e24dd008 	sub	sp, sp, #8, 0
    b5f4:	e1a04000 	mov	r4, r0
    b5f8:	ee030f10 	mcr	15, 0, r0, cr3, cr0, {0}
    b5fc:	e3a03000 	mov	r3, #0, 0
    b600:	ee073f95 	mcr	15, 0, r3, cr7, cr5, {4}
    b604:	eb000284 	bl	c01c <domain_access_ctrl_get>
    b608:	e1500004 	cmp	r0, r4
    b60c:	1a000001 	bne	b618 <domain_access_ctrl_set+0x2c>
    b610:	e28dd008 	add	sp, sp, #8, 0
    b614:	e8bd8010 	pop	{r4, pc}
    b618:	e59f3018 	ldr	r3, [pc, #24]	; b638 <domain_access_ctrl_set+0x4c>
    b61c:	e58d3000 	str	r3, [sp]
    b620:	e3a0300f 	mov	r3, #15, 0
    b624:	e59f2010 	ldr	r2, [pc, #16]	; b63c <domain_access_ctrl_set+0x50>
    b628:	e59f1010 	ldr	r1, [pc, #16]	; b640 <domain_access_ctrl_set+0x54>
    b62c:	e59f0010 	ldr	r0, [pc, #16]	; b644 <domain_access_ctrl_set+0x58>
    b630:	eb000531 	bl	cafc <printk>
    b634:	eb000660 	bl	cfbc <clean_reboot>
    b638:	0000ebac 	.word	0x0000ebac
    b63c:	0000ee3c 	.word	0x0000ee3c
    b640:	0000eba4 	.word	0x0000eba4
    b644:	0000d658 	.word	0x0000d658

0000b648 <vm_pt_alloc>:
    b648:	e52de004 	push	{lr}		; (str lr, [sp, #-4]!)
    b64c:	e24dd00c 	sub	sp, sp, #12, 0
    b650:	e3500a01 	cmp	r0, #4096	; 0x1000
    b654:	1a000008 	bne	b67c <vm_pt_alloc+0x34>
    b658:	e3a01901 	mov	r1, #16384	; 0x4000
    b65c:	e1a00100 	lsl	r0, r0, #2
    b660:	eb0003f3 	bl	c634 <kmalloc_aligned>
    b664:	e1a03900 	lsl	r3, r0, #18
    b668:	e1a03923 	lsr	r3, r3, #18
    b66c:	e3530000 	cmp	r3, #0, 0
    b670:	1a000009 	bne	b69c <vm_pt_alloc+0x54>
    b674:	e28dd00c 	add	sp, sp, #12, 0
    b678:	e49df004 	pop	{pc}		; (ldr pc, [sp], #4)
    b67c:	e59f3038 	ldr	r3, [pc, #56]	; b6bc <vm_pt_alloc+0x74>
    b680:	e58d3000 	str	r3, [sp]
    b684:	e3a03013 	mov	r3, #19, 0
    b688:	e59f2030 	ldr	r2, [pc, #48]	; b6c0 <vm_pt_alloc+0x78>
    b68c:	e59f1030 	ldr	r1, [pc, #48]	; b6c4 <vm_pt_alloc+0x7c>
    b690:	e59f0030 	ldr	r0, [pc, #48]	; b6c8 <vm_pt_alloc+0x80>
    b694:	eb000518 	bl	cafc <printk>
    b698:	eb000647 	bl	cfbc <clean_reboot>
    b69c:	e59f3028 	ldr	r3, [pc, #40]	; b6cc <vm_pt_alloc+0x84>
    b6a0:	e58d3000 	str	r3, [sp]
    b6a4:	e3a0301e 	mov	r3, #30, 0
    b6a8:	e59f2010 	ldr	r2, [pc, #16]	; b6c0 <vm_pt_alloc+0x78>
    b6ac:	e59f1010 	ldr	r1, [pc, #16]	; b6c4 <vm_pt_alloc+0x7c>
    b6b0:	e59f0018 	ldr	r0, [pc, #24]	; b6d0 <vm_pt_alloc+0x88>
    b6b4:	eb000510 	bl	cafc <printk>
    b6b8:	eb00063f 	bl	cfbc <clean_reboot>
    b6bc:	0000ec30 	.word	0x0000ec30
    b6c0:	0000ee54 	.word	0x0000ee54
    b6c4:	0000eba4 	.word	0x0000eba4
    b6c8:	0000ebcc 	.word	0x0000ebcc
    b6cc:	0000ec80 	.word	0x0000ec80
    b6d0:	0000ec3c 	.word	0x0000ec3c

0000b6d4 <vm_dup>:
    b6d4:	e92d4070 	push	{r4, r5, r6, lr}
    b6d8:	e1a05000 	mov	r5, r0
    b6dc:	e3a00a01 	mov	r0, #4096	; 0x1000
    b6e0:	ebffffd8 	bl	b648 <vm_pt_alloc>
    b6e4:	e1a04000 	mov	r4, r0
    b6e8:	e3a02901 	mov	r2, #16384	; 0x4000
    b6ec:	e1a01005 	mov	r1, r5
    b6f0:	eb0004ae 	bl	c9b0 <memcpy>
    b6f4:	e1a00004 	mov	r0, r4
    b6f8:	e8bd8070 	pop	{r4, r5, r6, pc}

0000b6fc <vm_mmu_enable>:
    b6fc:	e52de004 	push	{lr}		; (str lr, [sp, #-4]!)
    b700:	e24dd00c 	sub	sp, sp, #12, 0
    b704:	eb0001a5 	bl	bda0 <mmu_is_enabled>
    b708:	e3500000 	cmp	r0, #0, 0
    b70c:	1a000005 	bne	b728 <vm_mmu_enable+0x2c>
    b710:	eb0001e9 	bl	bebc <mmu_enable>
    b714:	eb0001a1 	bl	bda0 <mmu_is_enabled>
    b718:	e3500000 	cmp	r0, #0, 0
    b71c:	0a000009 	beq	b748 <vm_mmu_enable+0x4c>
    b720:	e28dd00c 	add	sp, sp, #12, 0
    b724:	e49df004 	pop	{pc}		; (ldr pc, [sp], #4)
    b728:	e59f3038 	ldr	r3, [pc, #56]	; b768 <vm_mmu_enable+0x6c>
    b72c:	e58d3000 	str	r3, [sp]
    b730:	e3a0302e 	mov	r3, #46, 0	; 0x2e
    b734:	e59f2030 	ldr	r2, [pc, #48]	; b76c <vm_mmu_enable+0x70>
    b738:	e59f1030 	ldr	r1, [pc, #48]	; b770 <vm_mmu_enable+0x74>
    b73c:	e59f0030 	ldr	r0, [pc, #48]	; b774 <vm_mmu_enable+0x78>
    b740:	eb0004ed 	bl	cafc <printk>
    b744:	eb00061c 	bl	cfbc <clean_reboot>
    b748:	e59f3028 	ldr	r3, [pc, #40]	; b778 <vm_mmu_enable+0x7c>
    b74c:	e58d3000 	str	r3, [sp]
    b750:	e3a03030 	mov	r3, #48, 0	; 0x30
    b754:	e59f2010 	ldr	r2, [pc, #16]	; b76c <vm_mmu_enable+0x70>
    b758:	e59f1010 	ldr	r1, [pc, #16]	; b770 <vm_mmu_enable+0x74>
    b75c:	e59f0010 	ldr	r0, [pc, #16]	; b774 <vm_mmu_enable+0x78>
    b760:	eb0004e5 	bl	cafc <printk>
    b764:	eb000614 	bl	cfbc <clean_reboot>
    b768:	0000daac 	.word	0x0000daac
    b76c:	0000ee60 	.word	0x0000ee60
    b770:	0000eba4 	.word	0x0000eba4
    b774:	0000d658 	.word	0x0000d658
    b778:	0000dac0 	.word	0x0000dac0

0000b77c <vm_mmu_disable>:
    b77c:	e52de004 	push	{lr}		; (str lr, [sp, #-4]!)
    b780:	e24dd00c 	sub	sp, sp, #12, 0
    b784:	eb000185 	bl	bda0 <mmu_is_enabled>
    b788:	e3500000 	cmp	r0, #0, 0
    b78c:	0a000005 	beq	b7a8 <vm_mmu_disable+0x2c>
    b790:	eb0001a1 	bl	be1c <mmu_disable>
    b794:	eb000181 	bl	bda0 <mmu_is_enabled>
    b798:	e3500000 	cmp	r0, #0, 0
    b79c:	1a000009 	bne	b7c8 <vm_mmu_disable+0x4c>
    b7a0:	e28dd00c 	add	sp, sp, #12, 0
    b7a4:	e49df004 	pop	{pc}		; (ldr pc, [sp], #4)
    b7a8:	e59f3038 	ldr	r3, [pc, #56]	; b7e8 <vm_mmu_disable+0x6c>
    b7ac:	e58d3000 	str	r3, [sp]
    b7b0:	e3a03035 	mov	r3, #53, 0	; 0x35
    b7b4:	e59f2030 	ldr	r2, [pc, #48]	; b7ec <vm_mmu_disable+0x70>
    b7b8:	e59f1030 	ldr	r1, [pc, #48]	; b7f0 <vm_mmu_disable+0x74>
    b7bc:	e59f0030 	ldr	r0, [pc, #48]	; b7f4 <vm_mmu_disable+0x78>
    b7c0:	eb0004cd 	bl	cafc <printk>
    b7c4:	eb0005fc 	bl	cfbc <clean_reboot>
    b7c8:	e59f3028 	ldr	r3, [pc, #40]	; b7f8 <vm_mmu_disable+0x7c>
    b7cc:	e58d3000 	str	r3, [sp]
    b7d0:	e3a03037 	mov	r3, #55, 0	; 0x37
    b7d4:	e59f2010 	ldr	r2, [pc, #16]	; b7ec <vm_mmu_disable+0x70>
    b7d8:	e59f1010 	ldr	r1, [pc, #16]	; b7f0 <vm_mmu_disable+0x74>
    b7dc:	e59f0010 	ldr	r0, [pc, #16]	; b7f4 <vm_mmu_disable+0x78>
    b7e0:	eb0004c5 	bl	cafc <printk>
    b7e4:	eb0005f4 	bl	cfbc <clean_reboot>
    b7e8:	0000dac0 	.word	0x0000dac0
    b7ec:	0000ee70 	.word	0x0000ee70
    b7f0:	0000eba4 	.word	0x0000eba4
    b7f4:	0000d658 	.word	0x0000d658
    b7f8:	0000daac 	.word	0x0000daac

0000b7fc <vm_mmu_switch>:
    b7fc:	e52de004 	push	{lr}		; (str lr, [sp, #-4]!)
    b800:	e24dd00c 	sub	sp, sp, #12, 0
    b804:	e1a03000 	mov	r3, r0
    b808:	e1a00001 	mov	r0, r1
    b80c:	e1a01002 	mov	r1, r2
    b810:	e2532000 	subs	r2, r3, #0, 0
    b814:	0a000002 	beq	b824 <vm_mmu_switch+0x28>
    b818:	eb0001bc 	bl	bf10 <mmu_set_ctx>
    b81c:	e28dd00c 	add	sp, sp, #12, 0
    b820:	e49df004 	pop	{pc}		; (ldr pc, [sp], #4)
    b824:	e59f3018 	ldr	r3, [pc, #24]	; b844 <vm_mmu_switch+0x48>
    b828:	e58d3000 	str	r3, [sp]
    b82c:	e3a0303e 	mov	r3, #62, 0	; 0x3e
    b830:	e59f2010 	ldr	r2, [pc, #16]	; b848 <vm_mmu_switch+0x4c>
    b834:	e59f1010 	ldr	r1, [pc, #16]	; b84c <vm_mmu_switch+0x50>
    b838:	e59f0010 	ldr	r0, [pc, #16]	; b850 <vm_mmu_switch+0x54>
    b83c:	eb0004ae 	bl	cafc <printk>
    b840:	eb0005dd 	bl	cfbc <clean_reboot>
    b844:	0000ecac 	.word	0x0000ecac
    b848:	0000ee80 	.word	0x0000ee80
    b84c:	0000eba4 	.word	0x0000eba4
    b850:	0000d658 	.word	0x0000d658

0000b854 <vm_mmu_init>:
    b854:	e92d4010 	push	{r4, lr}
    b858:	e1a04000 	mov	r4, r0
    b85c:	eb0001cc 	bl	bf94 <mmu_init>
    b860:	e1a00004 	mov	r0, r4
    b864:	ebffff60 	bl	b5ec <domain_access_ctrl_set>
    b868:	e8bd8010 	pop	{r4, pc}

0000b86c <vm_map_sec>:
    b86c:	e24dd008 	sub	sp, sp, #8, 0
    b870:	e92d4070 	push	{r4, r5, r6, lr}
    b874:	e24dd008 	sub	sp, sp, #8, 0
    b878:	e58d301c 	str	r3, [sp, #28]
    b87c:	e3c134ff 	bic	r3, r1, #-16777216	; 0xff000000
    b880:	e3c3360f 	bic	r3, r3, #15728640	; 0xf00000
    b884:	e3530000 	cmp	r3, #0, 0
    b888:	1a000043 	bne	b99c <vm_map_sec+0x130>
    b88c:	e3c234ff 	bic	r3, r2, #-16777216	; 0xff000000
    b890:	e3c3360f 	bic	r3, r3, #15728640	; 0xf00000
    b894:	e3530000 	cmp	r3, #0, 0
    b898:	1a000047 	bne	b9bc <vm_map_sec+0x150>
    b89c:	e59d3028 	ldr	r3, [sp, #40]	; 0x28
    b8a0:	e3530003 	cmp	r3, #3, 0
    b8a4:	1a00004c 	bne	b9dc <vm_map_sec+0x170>
    b8a8:	e1a01a21 	lsr	r1, r1, #20
    b8ac:	e1a05101 	lsl	r5, r1, #2
    b8b0:	e0804101 	add	r4, r0, r1, lsl #2
    b8b4:	e7d0c101 	ldrb	ip, [r0, r1, lsl #2]
    b8b8:	e3ccc001 	bic	ip, ip, #1, 0
    b8bc:	e5dde02d 	ldrb	lr, [sp, #45]	; 0x2d
    b8c0:	e38cc002 	orr	ip, ip, #2, 0
    b8c4:	e20e6001 	and	r6, lr, #1, 0
    b8c8:	e3ccc004 	bic	ip, ip, #4, 0
    b8cc:	e1a030ae 	lsr	r3, lr, #1
    b8d0:	e18cc106 	orr	ip, ip, r6, lsl #2
    b8d4:	e2033001 	and	r3, r3, #1, 0
    b8d8:	e3ccc008 	bic	ip, ip, #8, 0
    b8dc:	e18cc183 	orr	ip, ip, r3, lsl #3
    b8e0:	e3ccc010 	bic	ip, ip, #16, 0
    b8e4:	e7c0c101 	strb	ip, [r0, r1, lsl #2]
    b8e8:	e19010b5 	ldrh	r1, [r0, r5]
    b8ec:	e59d3024 	ldr	r3, [sp, #36]	; 0x24
    b8f0:	e203c00f 	and	ip, r3, #15, 0
    b8f4:	e3c13e1e 	bic	r3, r1, #480	; 0x1e0
    b8f8:	e183128c 	orr	r1, r3, ip, lsl #5
    b8fc:	e18010b5 	strh	r1, [r0, r5]
    b900:	e1a03421 	lsr	r3, r1, #8
    b904:	e5dd102c 	ldrb	r1, [sp, #44]	; 0x2c
    b908:	e201c003 	and	ip, r1, #3, 0
    b90c:	e20330f1 	and	r3, r3, #241, 0	; 0xf1
    b910:	e1a0e12e 	lsr	lr, lr, #2
    b914:	e183310c 	orr	r3, r3, ip, lsl #2
    b918:	e20ee007 	and	lr, lr, #7, 0
    b91c:	e3c33070 	bic	r3, r3, #112, 0	; 0x70
    b920:	e1a01121 	lsr	r1, r1, #2
    b924:	e183320e 	orr	r3, r3, lr, lsl #4
    b928:	e2011001 	and	r1, r1, #1, 0
    b92c:	e3c33080 	bic	r3, r3, #128, 0	; 0x80
    b930:	e1833381 	orr	r3, r3, r1, lsl #7
    b934:	e5c43001 	strb	r3, [r4, #1]
    b938:	e5d43002 	ldrb	r3, [r4, #2]
    b93c:	e59d101c 	ldr	r1, [sp, #28]
    b940:	e16f1f11 	clz	r1, r1
    b944:	e1a012a1 	lsr	r1, r1, #5
    b948:	e20330fc 	and	r3, r3, #252, 0	; 0xfc
    b94c:	e1833081 	orr	r3, r3, r1, lsl #1
    b950:	e3c33004 	bic	r3, r3, #4, 0
    b954:	e5c43002 	strb	r3, [r4, #2]
    b958:	e1d430b2 	ldrh	r3, [r4, #2]
    b95c:	e59f10b8 	ldr	r1, [pc, #184]	; ba1c <vm_map_sec+0x1b0>
    b960:	e0012a22 	and	r2, r1, r2, lsr #20
    b964:	e1c33201 	bic	r3, r3, r1, lsl #4
    b968:	e1832202 	orr	r2, r3, r2, lsl #4
    b96c:	e1c420b2 	strh	r2, [r4, #2]
    b970:	e20220f7 	and	r2, r2, #247, 0	; 0xf7
    b974:	e5c42002 	strb	r2, [r4, #2]
    b978:	e1a01004 	mov	r1, r4
    b97c:	ebfffe82 	bl	b38c <vm_pte_print>
    b980:	e3540000 	cmp	r4, #0, 0
    b984:	0a00001c 	beq	b9fc <vm_map_sec+0x190>
    b988:	e1a00004 	mov	r0, r4
    b98c:	e28dd008 	add	sp, sp, #8, 0
    b990:	e8bd4070 	pop	{r4, r5, r6, lr}
    b994:	e28dd008 	add	sp, sp, #8, 0
    b998:	e12fff1e 	bx	lr
    b99c:	e59f307c 	ldr	r3, [pc, #124]	; ba20 <vm_map_sec+0x1b4>
    b9a0:	e58d3000 	str	r3, [sp]
    b9a4:	e3a0304e 	mov	r3, #78, 0	; 0x4e
    b9a8:	e59f2074 	ldr	r2, [pc, #116]	; ba24 <vm_map_sec+0x1b8>
    b9ac:	e59f1074 	ldr	r1, [pc, #116]	; ba28 <vm_map_sec+0x1bc>
    b9b0:	e59f0074 	ldr	r0, [pc, #116]	; ba2c <vm_map_sec+0x1c0>
    b9b4:	eb000450 	bl	cafc <printk>
    b9b8:	eb00057f 	bl	cfbc <clean_reboot>
    b9bc:	e59f306c 	ldr	r3, [pc, #108]	; ba30 <vm_map_sec+0x1c4>
    b9c0:	e58d3000 	str	r3, [sp]
    b9c4:	e3a0304f 	mov	r3, #79, 0	; 0x4f
    b9c8:	e59f2054 	ldr	r2, [pc, #84]	; ba24 <vm_map_sec+0x1b8>
    b9cc:	e59f1054 	ldr	r1, [pc, #84]	; ba28 <vm_map_sec+0x1bc>
    b9d0:	e59f0054 	ldr	r0, [pc, #84]	; ba2c <vm_map_sec+0x1c0>
    b9d4:	eb000448 	bl	cafc <printk>
    b9d8:	eb000577 	bl	cfbc <clean_reboot>
    b9dc:	e59f3050 	ldr	r3, [pc, #80]	; ba34 <vm_map_sec+0x1c8>
    b9e0:	e58d3000 	str	r3, [sp]
    b9e4:	e3a03052 	mov	r3, #82, 0	; 0x52
    b9e8:	e59f2034 	ldr	r2, [pc, #52]	; ba24 <vm_map_sec+0x1b8>
    b9ec:	e59f1034 	ldr	r1, [pc, #52]	; ba28 <vm_map_sec+0x1bc>
    b9f0:	e59f0034 	ldr	r0, [pc, #52]	; ba2c <vm_map_sec+0x1c0>
    b9f4:	eb000440 	bl	cafc <printk>
    b9f8:	eb00056f 	bl	cfbc <clean_reboot>
    b9fc:	e59f3034 	ldr	r3, [pc, #52]	; ba38 <vm_map_sec+0x1cc>
    ba00:	e58d3000 	str	r3, [sp]
    ba04:	e3a03076 	mov	r3, #118, 0	; 0x76
    ba08:	e59f2014 	ldr	r2, [pc, #20]	; ba24 <vm_map_sec+0x1b8>
    ba0c:	e59f1014 	ldr	r1, [pc, #20]	; ba28 <vm_map_sec+0x1bc>
    ba10:	e59f0014 	ldr	r0, [pc, #20]	; ba2c <vm_map_sec+0x1c0>
    ba14:	eb000438 	bl	cafc <printk>
    ba18:	eb000567 	bl	cfbc <clean_reboot>
    ba1c:	00000fff 	.word	0x00000fff
    ba20:	0000ecb0 	.word	0x0000ecb0
    ba24:	0000ee90 	.word	0x0000ee90
    ba28:	0000eba4 	.word	0x0000eba4
    ba2c:	0000d658 	.word	0x0000d658
    ba30:	0000ecc4 	.word	0x0000ecc4
    ba34:	0000ecd8 	.word	0x0000ecd8
    ba38:	0000ed08 	.word	0x0000ed08

0000ba3c <vm_lookup>:
    ba3c:	e1a03000 	mov	r3, r0
    ba40:	e1a01a21 	lsr	r1, r1, #20
    ba44:	e0900101 	adds	r0, r0, r1, lsl #2
    ba48:	0a000005 	beq	ba64 <vm_lookup+0x28>
    ba4c:	e7d33101 	ldrb	r3, [r3, r1, lsl #2]
    ba50:	e2033003 	and	r3, r3, #3, 0
    ba54:	e3530002 	cmp	r3, #2, 0
    ba58:	012fff1e 	bxeq	lr
    ba5c:	e3a00000 	mov	r0, #0, 0
    ba60:	e12fff1e 	bx	lr
    ba64:	e3a00000 	mov	r0, #0, 0
    ba68:	e12fff1e 	bx	lr

0000ba6c <vm_xlate>:
    ba6c:	e92d41f0 	push	{r4, r5, r6, r7, r8, lr}
    ba70:	e24dd008 	sub	sp, sp, #8, 0
    ba74:	e1a06000 	mov	r6, r0
    ba78:	e1a05001 	mov	r5, r1
    ba7c:	e1a04002 	mov	r4, r2
    ba80:	e1a08a22 	lsr	r8, r2, #20
    ba84:	e0917108 	adds	r7, r1, r8, lsl #2
    ba88:	0a00000f 	beq	bacc <vm_xlate+0x60>
    ba8c:	e3570000 	cmp	r7, #0, 0
    ba90:	0a00000a 	beq	bac0 <vm_xlate+0x54>
    ba94:	e7d53108 	ldrb	r3, [r5, r8, lsl #2]
    ba98:	e2033003 	and	r3, r3, #3, 0
    ba9c:	e3530002 	cmp	r3, #2, 0
    baa0:	1a00000c 	bne	bad8 <vm_xlate+0x6c>
    baa4:	e1d720b2 	ldrh	r2, [r7, #2]
    baa8:	e1a02222 	lsr	r2, r2, #4
    baac:	e3c444ff 	bic	r4, r4, #-16777216	; 0xff000000
    bab0:	e3c4460f 	bic	r4, r4, #15728640	; 0xf00000
    bab4:	e1a02a02 	lsl	r2, r2, #20
    bab8:	e1824004 	orr	r4, r2, r4
    babc:	e5864000 	str	r4, [r6]
    bac0:	e1a00007 	mov	r0, r7
    bac4:	e28dd008 	add	sp, sp, #8, 0
    bac8:	e8bd81f0 	pop	{r4, r5, r6, r7, r8, pc}
    bacc:	e59f000c 	ldr	r0, [pc, #12]	; bae0 <vm_xlate+0x74>
    bad0:	eb000409 	bl	cafc <printk>
    bad4:	eaffffec 	b	ba8c <vm_xlate+0x20>
    bad8:	e3a07000 	mov	r7, #0, 0
    badc:	eafffff7 	b	bac0 <vm_xlate+0x54>
    bae0:	0000ed0c 	.word	0x0000ed0c

0000bae4 <vm_map_kernel>:
    bae4:	e92d43f0 	push	{r4, r5, r6, r7, r8, r9, lr}
    bae8:	e24dd02c 	sub	sp, sp, #44, 0	; 0x2c
    baec:	e1a06001 	mov	r6, r1
    baf0:	e5901004 	ldr	r1, [r0, #4]
    baf4:	e3510000 	cmp	r1, #0, 0
    baf8:	0a000004 	beq	bb10 <vm_map_kernel+0x2c>
    bafc:	e1a05000 	mov	r5, r0
    bb00:	e1b00821 	lsrs	r0, r1, #16
    bb04:	1a000009 	bne	bb30 <vm_map_kernel+0x4c>
    bb08:	e1a03000 	mov	r3, r0
    bb0c:	ea000010 	b	bb54 <vm_map_kernel+0x70>
    bb10:	e59f3238 	ldr	r3, [pc, #568]	; bd50 <vm_map_kernel+0x26c>
    bb14:	e58d3000 	str	r3, [sp]
    bb18:	e3a03030 	mov	r3, #48, 0	; 0x30
    bb1c:	e59f2230 	ldr	r2, [pc, #560]	; bd54 <vm_map_kernel+0x270>
    bb20:	e59f1230 	ldr	r1, [pc, #560]	; bd58 <vm_map_kernel+0x274>
    bb24:	e59f0230 	ldr	r0, [pc, #560]	; bd5c <vm_map_kernel+0x278>
    bb28:	eb0003f3 	bl	cafc <printk>
    bb2c:	eb000522 	bl	cfbc <clean_reboot>
    bb30:	e59f3228 	ldr	r3, [pc, #552]	; bd60 <vm_map_kernel+0x27c>
    bb34:	e58d3000 	str	r3, [sp]
    bb38:	e3a03031 	mov	r3, #49, 0	; 0x31
    bb3c:	e59f2210 	ldr	r2, [pc, #528]	; bd54 <vm_map_kernel+0x270>
    bb40:	e59f1210 	ldr	r1, [pc, #528]	; bd58 <vm_map_kernel+0x274>
    bb44:	e59f0210 	ldr	r0, [pc, #528]	; bd5c <vm_map_kernel+0x278>
    bb48:	eb0003eb 	bl	cafc <printk>
    bb4c:	eb00051a 	bl	cfbc <clean_reboot>
    bb50:	e2833001 	add	r3, r3, #1, 0
    bb54:	e353000f 	cmp	r3, #15, 0
    bb58:	8a000005 	bhi	bb74 <vm_map_kernel+0x90>
    bb5c:	e3a02001 	mov	r2, #1, 0
    bb60:	e0112312 	ands	r2, r1, r2, lsl r3
    bb64:	11a02083 	lslne	r2, r3, #1
    bb68:	13a0c001 	movne	ip, #1, 0
    bb6c:	1180021c 	orrne	r0, r0, ip, lsl r2
    bb70:	eafffff6 	b	bb50 <vm_map_kernel+0x6c>
    bb74:	ebffff36 	bl	b854 <vm_mmu_init>
    bb78:	e3a00a01 	mov	r0, #4096	; 0x1000
    bb7c:	ebfffeb1 	bl	b648 <vm_pt_alloc>
    bb80:	e1a07000 	mov	r7, r0
    bb84:	e3a02001 	mov	r2, #1, 0
    bb88:	e59f11d4 	ldr	r1, [pc, #468]	; bd64 <vm_map_kernel+0x280>
    bb8c:	ebffff1a 	bl	b7fc <vm_mmu_switch>
    bb90:	e3a04000 	mov	r4, #0, 0
    bb94:	ea000025 	b	bc30 <vm_map_kernel+0x14c>
    bb98:	e59f31c8 	ldr	r3, [pc, #456]	; bd68 <vm_map_kernel+0x284>
    bb9c:	e58d3000 	str	r3, [sp]
    bba0:	e3a03075 	mov	r3, #117, 0	; 0x75
    bba4:	e59f21c0 	ldr	r2, [pc, #448]	; bd6c <vm_map_kernel+0x288>
    bba8:	e59f11c0 	ldr	r1, [pc, #448]	; bd70 <vm_map_kernel+0x28c>
    bbac:	e59f01c0 	ldr	r0, [pc, #448]	; bd74 <vm_map_kernel+0x290>
    bbb0:	eb0003d1 	bl	cafc <printk>
    bbb4:	eb000500 	bl	cfbc <clean_reboot>
    bbb8:	e593200c 	ldr	r2, [r3, #12]
    bbbc:	e3520010 	cmp	r2, #16, 0
    bbc0:	8a000034 	bhi	bc98 <vm_map_kernel+0x1b4>
    bbc4:	e3a03001 	mov	r3, #1, 0
    bbc8:	e58d3014 	str	r3, [sp, #20]
    bbcc:	e3a01000 	mov	r1, #0, 0
    bbd0:	e58d1018 	str	r1, [sp, #24]
    bbd4:	e58d201c 	str	r2, [sp, #28]
    bbd8:	e3a02003 	mov	r2, #3, 0
    bbdc:	e58d2020 	str	r2, [sp, #32]
    bbe0:	e5cd3024 	strb	r3, [sp, #36]	; 0x24
    bbe4:	e3a03004 	mov	r3, #4, 0
    bbe8:	e5cd3025 	strb	r3, [sp, #37]	; 0x25
    bbec:	e0859204 	add	r9, r5, r4, lsl #4
    bbf0:	e599c008 	ldr	ip, [r9, #8]
    bbf4:	e28d3028 	add	r3, sp, #40, 0	; 0x28
    bbf8:	e913000f 	ldmdb	r3, {r0, r1, r2, r3}
    bbfc:	e88d000f 	stm	sp, {r0, r1, r2, r3}
    bc00:	e59d3014 	ldr	r3, [sp, #20]
    bc04:	e1a0200c 	mov	r2, ip
    bc08:	e1a0100c 	mov	r1, ip
    bc0c:	e1a00007 	mov	r0, r7
    bc10:	ebffff15 	bl	b86c <vm_map_sec>
    bc14:	e1a08000 	mov	r8, r0
    bc18:	e5991008 	ldr	r1, [r9, #8]
    bc1c:	e1a00007 	mov	r0, r7
    bc20:	ebffff85 	bl	ba3c <vm_lookup>
    bc24:	e1580000 	cmp	r8, r0
    bc28:	1a00002f 	bne	bcec <vm_map_kernel+0x208>
    bc2c:	e2844001 	add	r4, r4, #1, 0
    bc30:	e5953000 	ldr	r3, [r5]
    bc34:	e1530004 	cmp	r3, r4
    bc38:	9a000033 	bls	bd0c <vm_map_kernel+0x228>
    bc3c:	e1a03204 	lsl	r3, r4, #4
    bc40:	e2833008 	add	r3, r3, #8, 0
    bc44:	e0853003 	add	r3, r5, r3
    bc48:	e5d32008 	ldrb	r2, [r3, #8]
    bc4c:	e3520001 	cmp	r2, #1, 0
    bc50:	0affffd8 	beq	bbb8 <vm_map_kernel+0xd4>
    bc54:	e3520002 	cmp	r2, #2, 0
    bc58:	0a000016 	beq	bcb8 <vm_map_kernel+0x1d4>
    bc5c:	e3520000 	cmp	r2, #0, 0
    bc60:	1a00001a 	bne	bcd0 <vm_map_kernel+0x1ec>
    bc64:	e593100c 	ldr	r1, [r3, #12]
    bc68:	e3510010 	cmp	r1, #16, 0
    bc6c:	8affffc9 	bhi	bb98 <vm_map_kernel+0xb4>
    bc70:	e3a02001 	mov	r2, #1, 0
    bc74:	e58d2014 	str	r2, [sp, #20]
    bc78:	e3a03000 	mov	r3, #0, 0
    bc7c:	e58d3018 	str	r3, [sp, #24]
    bc80:	e58d101c 	str	r1, [sp, #28]
    bc84:	e3a01003 	mov	r1, #3, 0
    bc88:	e58d1020 	str	r1, [sp, #32]
    bc8c:	e5cd2024 	strb	r2, [sp, #36]	; 0x24
    bc90:	e5cd3025 	strb	r3, [sp, #37]	; 0x25
    bc94:	eaffffd4 	b	bbec <vm_map_kernel+0x108>
    bc98:	e59f30c8 	ldr	r3, [pc, #200]	; bd68 <vm_map_kernel+0x284>
    bc9c:	e58d3000 	str	r3, [sp]
    bca0:	e3a03075 	mov	r3, #117, 0	; 0x75
    bca4:	e59f20c0 	ldr	r2, [pc, #192]	; bd6c <vm_map_kernel+0x288>
    bca8:	e59f10c0 	ldr	r1, [pc, #192]	; bd70 <vm_map_kernel+0x28c>
    bcac:	e59f00c0 	ldr	r0, [pc, #192]	; bd74 <vm_map_kernel+0x290>
    bcb0:	eb000391 	bl	cafc <printk>
    bcb4:	eb0004c0 	bl	cfbc <clean_reboot>
    bcb8:	e3a030b0 	mov	r3, #176, 0	; 0xb0
    bcbc:	e59f20b4 	ldr	r2, [pc, #180]	; bd78 <vm_map_kernel+0x294>
    bcc0:	e59f10b4 	ldr	r1, [pc, #180]	; bd7c <vm_map_kernel+0x298>
    bcc4:	e59f00b4 	ldr	r0, [pc, #180]	; bd80 <vm_map_kernel+0x29c>
    bcc8:	eb00038b 	bl	cafc <printk>
    bccc:	eb0004ba 	bl	cfbc <clean_reboot>
    bcd0:	e58d2000 	str	r2, [sp]
    bcd4:	e3a030b2 	mov	r3, #178, 0	; 0xb2
    bcd8:	e59f2098 	ldr	r2, [pc, #152]	; bd78 <vm_map_kernel+0x294>
    bcdc:	e59f1098 	ldr	r1, [pc, #152]	; bd7c <vm_map_kernel+0x298>
    bce0:	e59f009c 	ldr	r0, [pc, #156]	; bd84 <vm_map_kernel+0x2a0>
    bce4:	eb000384 	bl	cafc <printk>
    bce8:	eb0004b3 	bl	cfbc <clean_reboot>
    bcec:	e59f3094 	ldr	r3, [pc, #148]	; bd88 <vm_map_kernel+0x2a4>
    bcf0:	e58d3000 	str	r3, [sp]
    bcf4:	e3a030d9 	mov	r3, #217, 0	; 0xd9
    bcf8:	e59f208c 	ldr	r2, [pc, #140]	; bd8c <vm_map_kernel+0x2a8>
    bcfc:	e59f1078 	ldr	r1, [pc, #120]	; bd7c <vm_map_kernel+0x298>
    bd00:	e59f0054 	ldr	r0, [pc, #84]	; bd5c <vm_map_kernel+0x278>
    bd04:	eb00037c 	bl	cafc <printk>
    bd08:	eb0004ab 	bl	cfbc <clean_reboot>
    bd0c:	e3560000 	cmp	r6, #0, 0
    bd10:	1a000004 	bne	bd28 <vm_map_kernel+0x244>
    bd14:	e3570000 	cmp	r7, #0, 0
    bd18:	0a000004 	beq	bd30 <vm_map_kernel+0x24c>
    bd1c:	e1a00007 	mov	r0, r7
    bd20:	e28dd02c 	add	sp, sp, #44, 0	; 0x2c
    bd24:	e8bd83f0 	pop	{r4, r5, r6, r7, r8, r9, pc}
    bd28:	ebfffe73 	bl	b6fc <vm_mmu_enable>
    bd2c:	eafffff8 	b	bd14 <vm_map_kernel+0x230>
    bd30:	e59f3058 	ldr	r3, [pc, #88]	; bd90 <vm_map_kernel+0x2ac>
    bd34:	e58d3000 	str	r3, [sp]
    bd38:	e3a030e8 	mov	r3, #232, 0	; 0xe8
    bd3c:	e59f2048 	ldr	r2, [pc, #72]	; bd8c <vm_map_kernel+0x2a8>
    bd40:	e59f1034 	ldr	r1, [pc, #52]	; bd7c <vm_map_kernel+0x298>
    bd44:	e59f0010 	ldr	r0, [pc, #16]	; bd5c <vm_map_kernel+0x278>
    bd48:	eb00036b 	bl	cafc <printk>
    bd4c:	eb00049a 	bl	cfbc <clean_reboot>
    bd50:	0000ed80 	.word	0x0000ed80
    bd54:	0000eea8 	.word	0x0000eea8
    bd58:	0000ed74 	.word	0x0000ed74
    bd5c:	0000d658 	.word	0x0000d658
    bd60:	0000ed88 	.word	0x0000ed88
    bd64:	0000140e 	.word	0x0000140e
    bd68:	0000ede0 	.word	0x0000ede0
    bd6c:	0000eeb4 	.word	0x0000eeb4
    bd70:	0000ed98 	.word	0x0000ed98
    bd74:	0000eda4 	.word	0x0000eda4
    bd78:	0000eebc 	.word	0x0000eebc
    bd7c:	0000eba4 	.word	0x0000eba4
    bd80:	0000edec 	.word	0x0000edec
    bd84:	0000ee0c 	.word	0x0000ee0c
    bd88:	0000ee30 	.word	0x0000ee30
    bd8c:	0000eec4 	.word	0x0000eec4
    bd90:	0000ecac 	.word	0x0000ecac

0000bd94 <cp15_ctrl_reg1_rd>:
    bd94:	e92d4010 	push	{r4, lr}
    bd98:	ebfff212 	bl	85e8 <get_ctrl_reg_1>
    bd9c:	e8bd8010 	pop	{r4, pc}

0000bda0 <mmu_is_enabled>:
    bda0:	e92d4010 	push	{r4, lr}
    bda4:	ebfffffa 	bl	bd94 <cp15_ctrl_reg1_rd>
    bda8:	e2000001 	and	r0, r0, #1, 0
    bdac:	e8bd8010 	pop	{r4, pc}

0000bdb0 <mmu_disable_set>:
    bdb0:	e92d4030 	push	{r4, r5, lr}
    bdb4:	e24dd00c 	sub	sp, sp, #12, 0
    bdb8:	e3100001 	tst	r0, #1, 0
    bdbc:	1a000007 	bne	bde0 <mmu_disable_set+0x30>
    bdc0:	e1a04000 	mov	r4, r0
    bdc4:	e1a05120 	lsr	r5, r0, #2
    bdc8:	e2055001 	and	r5, r5, #1, 0
    bdcc:	ebfff237 	bl	86b0 <mmu_disable_set_asm>
    bdd0:	e3550000 	cmp	r5, #0, 0
    bdd4:	1a000009 	bne	be00 <mmu_disable_set+0x50>
    bdd8:	e28dd00c 	add	sp, sp, #12, 0
    bddc:	e8bd8030 	pop	{r4, r5, pc}
    bde0:	e59f3024 	ldr	r3, [pc, #36]	; be0c <mmu_disable_set+0x5c>
    bde4:	e58d3000 	str	r3, [sp]
    bde8:	e3a03023 	mov	r3, #35, 0	; 0x23
    bdec:	e59f201c 	ldr	r2, [pc, #28]	; be10 <mmu_disable_set+0x60>
    bdf0:	e59f101c 	ldr	r1, [pc, #28]	; be14 <mmu_disable_set+0x64>
    bdf4:	e59f001c 	ldr	r0, [pc, #28]	; be18 <mmu_disable_set+0x68>
    bdf8:	eb00033f 	bl	cafc <printk>
    bdfc:	eb00046e 	bl	cfbc <clean_reboot>
    be00:	e3840004 	orr	r0, r4, #4, 0
    be04:	ebfff1fd 	bl	8600 <cp15_ctrl_reg1_wr>
    be08:	eafffff2 	b	bdd8 <mmu_disable_set+0x28>
    be0c:	0000eedc 	.word	0x0000eedc
    be10:	0000ef28 	.word	0x0000ef28
    be14:	0000eed4 	.word	0x0000eed4
    be18:	0000d658 	.word	0x0000d658

0000be1c <mmu_disable>:
    be1c:	e52de004 	push	{lr}		; (str lr, [sp, #-4]!)
    be20:	e24dd00c 	sub	sp, sp, #12, 0
    be24:	ebffffda 	bl	bd94 <cp15_ctrl_reg1_rd>
    be28:	e3100001 	tst	r0, #1, 0
    be2c:	0a000003 	beq	be40 <mmu_disable+0x24>
    be30:	e3c00001 	bic	r0, r0, #1, 0
    be34:	ebffffdd 	bl	bdb0 <mmu_disable_set>
    be38:	e28dd00c 	add	sp, sp, #12, 0
    be3c:	e49df004 	pop	{pc}		; (ldr pc, [sp], #4)
    be40:	e59f3018 	ldr	r3, [pc, #24]	; be60 <mmu_disable+0x44>
    be44:	e58d3000 	str	r3, [sp]
    be48:	e3a03037 	mov	r3, #55, 0	; 0x37
    be4c:	e59f2010 	ldr	r2, [pc, #16]	; be64 <mmu_disable+0x48>
    be50:	e59f1010 	ldr	r1, [pc, #16]	; be68 <mmu_disable+0x4c>
    be54:	e59f0010 	ldr	r0, [pc, #16]	; be6c <mmu_disable+0x50>
    be58:	eb000327 	bl	cafc <printk>
    be5c:	eb000456 	bl	cfbc <clean_reboot>
    be60:	0000eeec 	.word	0x0000eeec
    be64:	0000ef38 	.word	0x0000ef38
    be68:	0000eed4 	.word	0x0000eed4
    be6c:	0000d658 	.word	0x0000d658

0000be70 <mmu_enable_set>:
    be70:	e52de004 	push	{lr}		; (str lr, [sp, #-4]!)
    be74:	e24dd00c 	sub	sp, sp, #12, 0
    be78:	e3100001 	tst	r0, #1, 0
    be7c:	0a000002 	beq	be8c <mmu_enable_set+0x1c>
    be80:	ebfff222 	bl	8710 <mmu_enable_set_asm>
    be84:	e28dd00c 	add	sp, sp, #12, 0
    be88:	e49df004 	pop	{pc}		; (ldr pc, [sp], #4)
    be8c:	e59f3018 	ldr	r3, [pc, #24]	; beac <mmu_enable_set+0x3c>
    be90:	e58d3000 	str	r3, [sp]
    be94:	e3a03041 	mov	r3, #65, 0	; 0x41
    be98:	e59f2010 	ldr	r2, [pc, #16]	; beb0 <mmu_enable_set+0x40>
    be9c:	e59f1010 	ldr	r1, [pc, #16]	; beb4 <mmu_enable_set+0x44>
    bea0:	e59f0010 	ldr	r0, [pc, #16]	; beb8 <mmu_enable_set+0x48>
    bea4:	eb000314 	bl	cafc <printk>
    bea8:	eb000443 	bl	cfbc <clean_reboot>
    beac:	0000eeec 	.word	0x0000eeec
    beb0:	0000ef44 	.word	0x0000ef44
    beb4:	0000eed4 	.word	0x0000eed4
    beb8:	0000d658 	.word	0x0000d658

0000bebc <mmu_enable>:
    bebc:	e52de004 	push	{lr}		; (str lr, [sp, #-4]!)
    bec0:	e24dd00c 	sub	sp, sp, #12, 0
    bec4:	ebffffb2 	bl	bd94 <cp15_ctrl_reg1_rd>
    bec8:	e3100001 	tst	r0, #1, 0
    becc:	1a000003 	bne	bee0 <mmu_enable+0x24>
    bed0:	e3800001 	orr	r0, r0, #1, 0
    bed4:	ebffffe5 	bl	be70 <mmu_enable_set>
    bed8:	e28dd00c 	add	sp, sp, #12, 0
    bedc:	e49df004 	pop	{pc}		; (ldr pc, [sp], #4)
    bee0:	e59f3018 	ldr	r3, [pc, #24]	; bf00 <mmu_enable+0x44>
    bee4:	e58d3000 	str	r3, [sp]
    bee8:	e3a03049 	mov	r3, #73, 0	; 0x49
    beec:	e59f2010 	ldr	r2, [pc, #16]	; bf04 <mmu_enable+0x48>
    bef0:	e59f1010 	ldr	r1, [pc, #16]	; bf08 <mmu_enable+0x4c>
    bef4:	e59f0010 	ldr	r0, [pc, #16]	; bf0c <mmu_enable+0x50>
    bef8:	eb0002ff 	bl	cafc <printk>
    befc:	eb00042e 	bl	cfbc <clean_reboot>
    bf00:	0000eedc 	.word	0x0000eedc
    bf04:	0000ef54 	.word	0x0000ef54
    bf08:	0000eed4 	.word	0x0000eed4
    bf0c:	0000d658 	.word	0x0000d658

0000bf10 <mmu_set_ctx>:
    bf10:	e52de004 	push	{lr}		; (str lr, [sp, #-4]!)
    bf14:	e24dd00c 	sub	sp, sp, #12, 0
    bf18:	e1a03001 	mov	r3, r1
    bf1c:	e3530000 	cmp	r3, #0, 0
    bf20:	0a000006 	beq	bf40 <mmu_set_ctx+0x30>
    bf24:	e1a01002 	mov	r1, r2
    bf28:	e353003f 	cmp	r3, #63, 0	; 0x3f
    bf2c:	8a00000b 	bhi	bf60 <mmu_set_ctx+0x50>
    bf30:	e1830400 	orr	r0, r3, r0, lsl #8
    bf34:	ebfff1d0 	bl	867c <cp15_set_procid_ttbr0>
    bf38:	e28dd00c 	add	sp, sp, #12, 0
    bf3c:	e49df004 	pop	{pc}		; (ldr pc, [sp], #4)
    bf40:	e59f3038 	ldr	r3, [pc, #56]	; bf80 <mmu_set_ctx+0x70>
    bf44:	e58d3000 	str	r3, [sp]
    bf48:	e3a03050 	mov	r3, #80, 0	; 0x50
    bf4c:	e59f2030 	ldr	r2, [pc, #48]	; bf84 <mmu_set_ctx+0x74>
    bf50:	e59f1030 	ldr	r1, [pc, #48]	; bf88 <mmu_set_ctx+0x78>
    bf54:	e59f0030 	ldr	r0, [pc, #48]	; bf8c <mmu_set_ctx+0x7c>
    bf58:	eb0002e7 	bl	cafc <printk>
    bf5c:	eb000416 	bl	cfbc <clean_reboot>
    bf60:	e59f3028 	ldr	r3, [pc, #40]	; bf90 <mmu_set_ctx+0x80>
    bf64:	e58d3000 	str	r3, [sp]
    bf68:	e3a03051 	mov	r3, #81, 0	; 0x51
    bf6c:	e59f2010 	ldr	r2, [pc, #16]	; bf84 <mmu_set_ctx+0x74>
    bf70:	e59f1010 	ldr	r1, [pc, #16]	; bf88 <mmu_set_ctx+0x78>
    bf74:	e59f0010 	ldr	r0, [pc, #16]	; bf8c <mmu_set_ctx+0x7c>
    bf78:	eb0002df 	bl	cafc <printk>
    bf7c:	eb00040e 	bl	cfbc <clean_reboot>
    bf80:	0000eefc 	.word	0x0000eefc
    bf84:	0000ef60 	.word	0x0000ef60
    bf88:	0000eed4 	.word	0x0000eed4
    bf8c:	0000d658 	.word	0x0000d658
    bf90:	0000ef04 	.word	0x0000ef04

0000bf94 <mmu_init>:
    bf94:	e52de004 	push	{lr}		; (str lr, [sp, #-4]!)
    bf98:	e24dd00c 	sub	sp, sp, #12, 0
    bf9c:	ebfff19b 	bl	8610 <mmu_reset>
    bfa0:	ebffff7b 	bl	bd94 <cp15_ctrl_reg1_rd>
    bfa4:	e3800502 	orr	r0, r0, #8388608	; 0x800000
    bfa8:	ebfff194 	bl	8600 <cp15_ctrl_reg1_wr>
    bfac:	ebffff78 	bl	bd94 <cp15_ctrl_reg1_rd>
    bfb0:	e3100502 	tst	r0, #8388608	; 0x800000
    bfb4:	0a000003 	beq	bfc8 <mmu_init+0x34>
    bfb8:	e3100001 	tst	r0, #1, 0
    bfbc:	1a000009 	bne	bfe8 <mmu_init+0x54>
    bfc0:	e28dd00c 	add	sp, sp, #12, 0
    bfc4:	e49df004 	pop	{pc}		; (ldr pc, [sp], #4)
    bfc8:	e59f3038 	ldr	r3, [pc, #56]	; c008 <mmu_init+0x74>
    bfcc:	e58d3000 	str	r3, [sp]
    bfd0:	e3a0306a 	mov	r3, #106, 0	; 0x6a
    bfd4:	e59f2030 	ldr	r2, [pc, #48]	; c00c <mmu_init+0x78>
    bfd8:	e59f1030 	ldr	r1, [pc, #48]	; c010 <mmu_init+0x7c>
    bfdc:	e59f0030 	ldr	r0, [pc, #48]	; c014 <mmu_init+0x80>
    bfe0:	eb0002c5 	bl	cafc <printk>
    bfe4:	eb0003f4 	bl	cfbc <clean_reboot>
    bfe8:	e59f3028 	ldr	r3, [pc, #40]	; c018 <mmu_init+0x84>
    bfec:	e58d3000 	str	r3, [sp]
    bff0:	e3a0306b 	mov	r3, #107, 0	; 0x6b
    bff4:	e59f2010 	ldr	r2, [pc, #16]	; c00c <mmu_init+0x78>
    bff8:	e59f1010 	ldr	r1, [pc, #16]	; c010 <mmu_init+0x7c>
    bffc:	e59f0010 	ldr	r0, [pc, #16]	; c014 <mmu_init+0x80>
    c000:	eb0002bd 	bl	cafc <printk>
    c004:	eb0003ec 	bl	cfbc <clean_reboot>
    c008:	0000ef0c 	.word	0x0000ef0c
    c00c:	0000ef6c 	.word	0x0000ef6c
    c010:	0000eed4 	.word	0x0000eed4
    c014:	0000d658 	.word	0x0000d658
    c018:	0000ef18 	.word	0x0000ef18

0000c01c <domain_access_ctrl_get>:
    c01c:	e92d4010 	push	{r4, lr}
    c020:	ebfff16d 	bl	85dc <get_domain_ctrl_wr>
    c024:	e8bd8010 	pop	{r4, pc}

0000c028 <cp14_enable>:
    c028:	e52de004 	push	{lr}		; (str lr, [sp, #-4]!)
    c02c:	e24dd00c 	sub	sp, sp, #12, 0
    c030:	e59f0118 	ldr	r0, [pc, #280]	; c150 <cp14_enable+0x128>
    c034:	eb0002b0 	bl	cafc <printk>
    c038:	ee103e11 	mrc	14, 0, r3, cr0, cr1, {0}
    c03c:	e3130901 	tst	r3, #16384	; 0x4000
    c040:	1a000012 	bne	c090 <cp14_enable+0x68>
    c044:	e3130902 	tst	r3, #32768	; 0x8000
    c048:	1a000018 	bne	c0b0 <cp14_enable+0x88>
    c04c:	e3130902 	tst	r3, #32768	; 0x8000
    c050:	1a00001e 	bne	c0d0 <cp14_enable+0xa8>
    c054:	e3130901 	tst	r3, #16384	; 0x4000
    c058:	1a000024 	bne	c0f0 <cp14_enable+0xc8>
    c05c:	e3833902 	orr	r3, r3, #32768	; 0x8000
    c060:	ee003e11 	mcr	14, 0, r3, cr0, cr1, {0}
    c064:	e3a03000 	mov	r3, #0, 0
    c068:	ee073f95 	mcr	15, 0, r3, cr7, cr5, {4}
    c06c:	ee103e11 	mrc	14, 0, r3, cr0, cr1, {0}
    c070:	e3130902 	tst	r3, #32768	; 0x8000
    c074:	0a000025 	beq	c110 <cp14_enable+0xe8>
    c078:	e3130901 	tst	r3, #16384	; 0x4000
    c07c:	1a00002b 	bne	c130 <cp14_enable+0x108>
    c080:	e3a03000 	mov	r3, #0, 0
    c084:	ee073f95 	mcr	15, 0, r3, cr7, cr5, {4}
    c088:	e28dd00c 	add	sp, sp, #12, 0
    c08c:	e49df004 	pop	{pc}		; (ldr pc, [sp], #4)
    c090:	e59f30bc 	ldr	r3, [pc, #188]	; c154 <cp14_enable+0x12c>
    c094:	e58d3000 	str	r3, [sp]
    c098:	e3a0301f 	mov	r3, #31, 0
    c09c:	e59f20b4 	ldr	r2, [pc, #180]	; c158 <cp14_enable+0x130>
    c0a0:	e59f10b4 	ldr	r1, [pc, #180]	; c15c <cp14_enable+0x134>
    c0a4:	e59f00b4 	ldr	r0, [pc, #180]	; c160 <cp14_enable+0x138>
    c0a8:	eb000293 	bl	cafc <printk>
    c0ac:	eb0003c2 	bl	cfbc <clean_reboot>
    c0b0:	e59f30ac 	ldr	r3, [pc, #172]	; c164 <cp14_enable+0x13c>
    c0b4:	e58d3000 	str	r3, [sp]
    c0b8:	e3a03020 	mov	r3, #32, 0
    c0bc:	e59f2094 	ldr	r2, [pc, #148]	; c158 <cp14_enable+0x130>
    c0c0:	e59f1094 	ldr	r1, [pc, #148]	; c15c <cp14_enable+0x134>
    c0c4:	e59f0094 	ldr	r0, [pc, #148]	; c160 <cp14_enable+0x138>
    c0c8:	eb00028b 	bl	cafc <printk>
    c0cc:	eb0003ba 	bl	cfbc <clean_reboot>
    c0d0:	e59f3090 	ldr	r3, [pc, #144]	; c168 <cp14_enable+0x140>
    c0d4:	e58d3000 	str	r3, [sp]
    c0d8:	e3a03021 	mov	r3, #33, 0	; 0x21
    c0dc:	e59f2074 	ldr	r2, [pc, #116]	; c158 <cp14_enable+0x130>
    c0e0:	e59f1074 	ldr	r1, [pc, #116]	; c15c <cp14_enable+0x134>
    c0e4:	e59f0074 	ldr	r0, [pc, #116]	; c160 <cp14_enable+0x138>
    c0e8:	eb000283 	bl	cafc <printk>
    c0ec:	eb0003b2 	bl	cfbc <clean_reboot>
    c0f0:	e59f3074 	ldr	r3, [pc, #116]	; c16c <cp14_enable+0x144>
    c0f4:	e58d3000 	str	r3, [sp]
    c0f8:	e3a03022 	mov	r3, #34, 0	; 0x22
    c0fc:	e59f2054 	ldr	r2, [pc, #84]	; c158 <cp14_enable+0x130>
    c100:	e59f1054 	ldr	r1, [pc, #84]	; c15c <cp14_enable+0x134>
    c104:	e59f0054 	ldr	r0, [pc, #84]	; c160 <cp14_enable+0x138>
    c108:	eb00027b 	bl	cafc <printk>
    c10c:	eb0003aa 	bl	cfbc <clean_reboot>
    c110:	e59f3058 	ldr	r3, [pc, #88]	; c170 <cp14_enable+0x148>
    c114:	e58d3000 	str	r3, [sp]
    c118:	e3a03026 	mov	r3, #38, 0	; 0x26
    c11c:	e59f2034 	ldr	r2, [pc, #52]	; c158 <cp14_enable+0x130>
    c120:	e59f1034 	ldr	r1, [pc, #52]	; c15c <cp14_enable+0x134>
    c124:	e59f0034 	ldr	r0, [pc, #52]	; c160 <cp14_enable+0x138>
    c128:	eb000273 	bl	cafc <printk>
    c12c:	eb0003a2 	bl	cfbc <clean_reboot>
    c130:	e59f301c 	ldr	r3, [pc, #28]	; c154 <cp14_enable+0x12c>
    c134:	e58d3000 	str	r3, [sp]
    c138:	e3a03027 	mov	r3, #39, 0	; 0x27
    c13c:	e59f2014 	ldr	r2, [pc, #20]	; c158 <cp14_enable+0x130>
    c140:	e59f1014 	ldr	r1, [pc, #20]	; c15c <cp14_enable+0x134>
    c144:	e59f0014 	ldr	r0, [pc, #20]	; c160 <cp14_enable+0x138>
    c148:	eb00026b 	bl	cafc <printk>
    c14c:	eb00039a 	bl	cfbc <clean_reboot>
    c150:	0000ef78 	.word	0x0000ef78
    c154:	0000ef94 	.word	0x0000ef94
    c158:	0000f0ac 	.word	0x0000f0ac
    c15c:	0000ef80 	.word	0x0000ef80
    c160:	0000d658 	.word	0x0000d658
    c164:	0000efa8 	.word	0x0000efa8
    c168:	0000efbc 	.word	0x0000efbc
    c16c:	0000efd4 	.word	0x0000efd4
    c170:	0000efec 	.word	0x0000efec

0000c174 <brkpt_match_set>:
    c174:	e52de004 	push	{lr}		; (str lr, [sp, #-4]!)
    c178:	e24dd00c 	sub	sp, sp, #12, 0
    c17c:	e3100003 	tst	r0, #3, 0
    c180:	1a00000d 	bne	c1bc <brkpt_match_set+0x48>
    c184:	ee000e91 	mcr	14, 0, r0, cr0, cr1, {4}
    c188:	e3a03000 	mov	r3, #0, 0
    c18c:	ee073f95 	mcr	15, 0, r3, cr7, cr5, {4}
    c190:	ee103e91 	mrc	14, 0, r3, cr0, cr1, {4}
    c194:	e1500003 	cmp	r0, r3
    c198:	0a00000f 	beq	c1dc <brkpt_match_set+0x68>
    c19c:	e58d3004 	str	r3, [sp, #4]
    c1a0:	e58d0000 	str	r0, [sp]
    c1a4:	e3a03048 	mov	r3, #72, 0	; 0x48
    c1a8:	e59f2044 	ldr	r2, [pc, #68]	; c1f4 <brkpt_match_set+0x80>
    c1ac:	e59f1044 	ldr	r1, [pc, #68]	; c1f8 <brkpt_match_set+0x84>
    c1b0:	e59f0044 	ldr	r0, [pc, #68]	; c1fc <brkpt_match_set+0x88>
    c1b4:	eb000250 	bl	cafc <printk>
    c1b8:	eb00037f 	bl	cfbc <clean_reboot>
    c1bc:	e59f303c 	ldr	r3, [pc, #60]	; c200 <brkpt_match_set+0x8c>
    c1c0:	e58d3000 	str	r3, [sp]
    c1c4:	e3a03043 	mov	r3, #67, 0	; 0x43
    c1c8:	e59f2024 	ldr	r2, [pc, #36]	; c1f4 <brkpt_match_set+0x80>
    c1cc:	e59f1024 	ldr	r1, [pc, #36]	; c1f8 <brkpt_match_set+0x84>
    c1d0:	e59f002c 	ldr	r0, [pc, #44]	; c204 <brkpt_match_set+0x90>
    c1d4:	eb000248 	bl	cafc <printk>
    c1d8:	eb000377 	bl	cfbc <clean_reboot>
    c1dc:	e3a0304e 	mov	r3, #78, 0	; 0x4e
    c1e0:	e59f200c 	ldr	r2, [pc, #12]	; c1f4 <brkpt_match_set+0x80>
    c1e4:	e59f100c 	ldr	r1, [pc, #12]	; c1f8 <brkpt_match_set+0x84>
    c1e8:	e59f0018 	ldr	r0, [pc, #24]	; c208 <brkpt_match_set+0x94>
    c1ec:	eb000242 	bl	cafc <printk>
    c1f0:	eb000371 	bl	cfbc <clean_reboot>
    c1f4:	0000f0b8 	.word	0x0000f0b8
    c1f8:	0000ef80 	.word	0x0000ef80
    c1fc:	0000f010 	.word	0x0000f010
    c200:	0000f000 	.word	0x0000f000
    c204:	0000d658 	.word	0x0000d658
    c208:	0000f038 	.word	0x0000f038

0000c20c <brkpt_mismatch_set>:
    c20c:	e52de004 	push	{lr}		; (str lr, [sp, #-4]!)
    c210:	e24dd00c 	sub	sp, sp, #12, 0
    c214:	e3100003 	tst	r0, #3, 0
    c218:	1a000010 	bne	c260 <brkpt_mismatch_set+0x54>
    c21c:	ee000e90 	mcr	14, 0, r0, cr0, cr0, {4}
    c220:	e3a03000 	mov	r3, #0, 0
    c224:	ee073f95 	mcr	15, 0, r3, cr7, cr5, {4}
    c228:	ee103e90 	mrc	14, 0, r3, cr0, cr0, {4}
    c22c:	e1500003 	cmp	r0, r3
    c230:	1a000012 	bne	c280 <brkpt_mismatch_set+0x74>
    c234:	e59f3084 	ldr	r3, [pc, #132]	; c2c0 <brkpt_mismatch_set+0xb4>
    c238:	ee003eb0 	mcr	14, 0, r3, cr0, cr0, {5}
    c23c:	e3a02000 	mov	r2, #0, 0
    c240:	ee072f95 	mcr	15, 0, r2, cr7, cr5, {4}
    c244:	ee102eb0 	mrc	14, 0, r2, cr0, cr0, {5}
    c248:	e1520003 	cmp	r2, r3
    c24c:	1a000013 	bne	c2a0 <brkpt_mismatch_set+0x94>
    c250:	e3a03000 	mov	r3, #0, 0
    c254:	ee073f95 	mcr	15, 0, r3, cr7, cr5, {4}
    c258:	e28dd00c 	add	sp, sp, #12, 0
    c25c:	e49df004 	pop	{pc}		; (ldr pc, [sp], #4)
    c260:	e59f305c 	ldr	r3, [pc, #92]	; c2c4 <brkpt_mismatch_set+0xb8>
    c264:	e58d3000 	str	r3, [sp]
    c268:	e3a03059 	mov	r3, #89, 0	; 0x59
    c26c:	e59f2054 	ldr	r2, [pc, #84]	; c2c8 <brkpt_mismatch_set+0xbc>
    c270:	e59f1054 	ldr	r1, [pc, #84]	; c2cc <brkpt_mismatch_set+0xc0>
    c274:	e59f0054 	ldr	r0, [pc, #84]	; c2d0 <brkpt_mismatch_set+0xc4>
    c278:	eb00021f 	bl	cafc <printk>
    c27c:	eb00034e 	bl	cfbc <clean_reboot>
    c280:	e58d3004 	str	r3, [sp, #4]
    c284:	e58d0000 	str	r0, [sp]
    c288:	e3a0305e 	mov	r3, #94, 0	; 0x5e
    c28c:	e59f2034 	ldr	r2, [pc, #52]	; c2c8 <brkpt_mismatch_set+0xbc>
    c290:	e59f1034 	ldr	r1, [pc, #52]	; c2cc <brkpt_mismatch_set+0xc0>
    c294:	e59f0038 	ldr	r0, [pc, #56]	; c2d4 <brkpt_mismatch_set+0xc8>
    c298:	eb000217 	bl	cafc <printk>
    c29c:	eb000346 	bl	cfbc <clean_reboot>
    c2a0:	e59f3030 	ldr	r3, [pc, #48]	; c2d8 <brkpt_mismatch_set+0xcc>
    c2a4:	e58d3000 	str	r3, [sp]
    c2a8:	e3a03066 	mov	r3, #102, 0	; 0x66
    c2ac:	e59f2014 	ldr	r2, [pc, #20]	; c2c8 <brkpt_mismatch_set+0xbc>
    c2b0:	e59f1014 	ldr	r1, [pc, #20]	; c2cc <brkpt_mismatch_set+0xc0>
    c2b4:	e59f0014 	ldr	r0, [pc, #20]	; c2d0 <brkpt_mismatch_set+0xc4>
    c2b8:	eb00020f 	bl	cafc <printk>
    c2bc:	eb00033e 	bl	cfbc <clean_reboot>
    c2c0:	004001e7 	.word	0x004001e7
    c2c4:	0000f000 	.word	0x0000f000
    c2c8:	0000f0c8 	.word	0x0000f0c8
    c2cc:	0000ef80 	.word	0x0000ef80
    c2d0:	0000d658 	.word	0x0000d658
    c2d4:	0000f010 	.word	0x0000f010
    c2d8:	0000f074 	.word	0x0000f074

0000c2dc <brkpt_mismatch_start>:
    c2dc:	e92d4010 	push	{r4, lr}
    c2e0:	e59f3028 	ldr	r3, [pc, #40]	; c310 <brkpt_mismatch_start+0x34>
    c2e4:	e5933000 	ldr	r3, [r3]
    c2e8:	e3530000 	cmp	r3, #0, 0
    c2ec:	0a000002 	beq	c2fc <brkpt_mismatch_start+0x20>
    c2f0:	e3a00000 	mov	r0, #0, 0
    c2f4:	ebffffc4 	bl	c20c <brkpt_mismatch_set>
    c2f8:	e8bd8010 	pop	{r4, pc}
    c2fc:	ebffff49 	bl	c028 <cp14_enable>
    c300:	e59f3008 	ldr	r3, [pc, #8]	; c310 <brkpt_mismatch_start+0x34>
    c304:	e3a02001 	mov	r2, #1, 0
    c308:	e5832000 	str	r2, [r3]
    c30c:	eafffff7 	b	c2f0 <brkpt_mismatch_start+0x14>
    c310:	0000f8a8 	.word	0x0000f8a8

0000c314 <brkpt_mismatch_stop>:
    c314:	ee103eb0 	mrc	14, 0, r3, cr0, cr0, {5}
    c318:	e3c33001 	bic	r3, r3, #1, 0
    c31c:	ee003eb0 	mcr	14, 0, r3, cr0, cr0, {5}
    c320:	e3a03000 	mov	r3, #0, 0
    c324:	ee073f95 	mcr	15, 0, r3, cr7, cr5, {4}
    c328:	ee073f95 	mcr	15, 0, r3, cr7, cr5, {4}
    c32c:	ee103eb0 	mrc	14, 0, r3, cr0, cr0, {5}
    c330:	e3130001 	tst	r3, #1, 0
    c334:	012fff1e 	bxeq	lr
    c338:	e52de004 	push	{lr}		; (str lr, [sp, #-4]!)
    c33c:	e24dd00c 	sub	sp, sp, #12, 0
    c340:	e59f3018 	ldr	r3, [pc, #24]	; c360 <brkpt_mismatch_stop+0x4c>
    c344:	e58d3000 	str	r3, [sp]
    c348:	e3a03078 	mov	r3, #120, 0	; 0x78
    c34c:	e59f2010 	ldr	r2, [pc, #16]	; c364 <brkpt_mismatch_stop+0x50>
    c350:	e59f1010 	ldr	r1, [pc, #16]	; c368 <brkpt_mismatch_stop+0x54>
    c354:	e59f0010 	ldr	r0, [pc, #16]	; c36c <brkpt_mismatch_stop+0x58>
    c358:	eb0001e7 	bl	cafc <printk>
    c35c:	eb000316 	bl	cfbc <clean_reboot>
    c360:	0000f08c 	.word	0x0000f08c
    c364:	0000f0dc 	.word	0x0000f0dc
    c368:	0000ef80 	.word	0x0000ef80
    c36c:	0000d658 	.word	0x0000d658

0000c370 <brkpt_fault_p>:
    c370:	ee153f30 	mrc	15, 0, r3, cr5, cr0, {1}
    c374:	e3130b01 	tst	r3, #1024	; 0x400
    c378:	0a000009 	beq	c3a4 <brkpt_fault_p+0x34>
    c37c:	e3a00000 	mov	r0, #0, 0
    c380:	e3500000 	cmp	r0, #0, 0
    c384:	012fff1e 	bxeq	lr
    c388:	ee100e11 	mrc	14, 0, r0, cr0, cr1, {0}
    c38c:	e1a00120 	lsr	r0, r0, #2
    c390:	e2000007 	and	r0, r0, #7, 0
    c394:	e3500001 	cmp	r0, #1, 0
    c398:	13a00000 	movne	r0, #0, 0
    c39c:	03a00001 	moveq	r0, #1, 0
    c3a0:	e12fff1e 	bx	lr
    c3a4:	e203301f 	and	r3, r3, #31, 0
    c3a8:	e3530002 	cmp	r3, #2, 0
    c3ac:	13a00000 	movne	r0, #0, 0
    c3b0:	1afffff2 	bne	c380 <brkpt_fault_p+0x10>
    c3b4:	e3a00001 	mov	r0, #1, 0
    c3b8:	eafffff0 	b	c380 <brkpt_fault_p+0x10>

0000c3bc <kmalloc_heap_end>:
    c3bc:	e59f3004 	ldr	r3, [pc, #4]	; c3c8 <kmalloc_heap_end+0xc>
    c3c0:	e5930000 	ldr	r0, [r3]
    c3c4:	e12fff1e 	bx	lr
    c3c8:	0000f8ac 	.word	0x0000f8ac

0000c3cc <kmalloc_heap_start>:
    c3cc:	e59f3004 	ldr	r3, [pc, #4]	; c3d8 <kmalloc_heap_start+0xc>
    c3d0:	e5930004 	ldr	r0, [r3, #4]
    c3d4:	e12fff1e 	bx	lr
    c3d8:	0000f8ac 	.word	0x0000f8ac

0000c3dc <kmalloc_heap_ptr>:
    c3dc:	e59f3004 	ldr	r3, [pc, #4]	; c3e8 <kmalloc_heap_ptr+0xc>
    c3e0:	e5930008 	ldr	r0, [r3, #8]
    c3e4:	e12fff1e 	bx	lr
    c3e8:	0000f8ac 	.word	0x0000f8ac

0000c3ec <kmalloc_init_set_start>:
    c3ec:	e92d4030 	push	{r4, r5, lr}
    c3f0:	e24dd00c 	sub	sp, sp, #12, 0
    c3f4:	e1a04000 	mov	r4, r0
    c3f8:	e1a05001 	mov	r5, r1
    c3fc:	eb0002f6 	bl	cfdc <program_end>
    c400:	e1540000 	cmp	r4, r0
    c404:	3a000010 	bcc	c44c <kmalloc_init_set_start+0x60>
    c408:	e3550000 	cmp	r5, #0, 0
    c40c:	0a000014 	beq	c464 <kmalloc_init_set_start+0x78>
    c410:	e59f30ac 	ldr	r3, [pc, #172]	; c4c4 <kmalloc_init_set_start+0xd8>
    c414:	e5933004 	ldr	r3, [r3, #4]
    c418:	e1530004 	cmp	r3, r4
    c41c:	8a000018 	bhi	c484 <kmalloc_init_set_start+0x98>
    c420:	e59f309c 	ldr	r3, [pc, #156]	; c4c4 <kmalloc_init_set_start+0xd8>
    c424:	e5933008 	ldr	r3, [r3, #8]
    c428:	e1530004 	cmp	r3, r4
    c42c:	8a00001a 	bhi	c49c <kmalloc_init_set_start+0xb0>
    c430:	e59f308c 	ldr	r3, [pc, #140]	; c4c4 <kmalloc_init_set_start+0xd8>
    c434:	e5834008 	str	r4, [r3, #8]
    c438:	e5834004 	str	r4, [r3, #4]
    c43c:	e0844005 	add	r4, r4, r5
    c440:	e5834000 	str	r4, [r3]
    c444:	e28dd00c 	add	sp, sp, #12, 0
    c448:	e8bd8030 	pop	{r4, r5, pc}
    c44c:	e3a03030 	mov	r3, #48, 0	; 0x30
    c450:	e59f2070 	ldr	r2, [pc, #112]	; c4c8 <kmalloc_init_set_start+0xdc>
    c454:	e59f1070 	ldr	r1, [pc, #112]	; c4cc <kmalloc_init_set_start+0xe0>
    c458:	e59f0070 	ldr	r0, [pc, #112]	; c4d0 <kmalloc_init_set_start+0xe4>
    c45c:	eb0001a6 	bl	cafc <printk>
    c460:	eb0002d5 	bl	cfbc <clean_reboot>
    c464:	e59f3068 	ldr	r3, [pc, #104]	; c4d4 <kmalloc_init_set_start+0xe8>
    c468:	e58d3000 	str	r3, [sp]
    c46c:	e3a03032 	mov	r3, #50, 0	; 0x32
    c470:	e59f2050 	ldr	r2, [pc, #80]	; c4c8 <kmalloc_init_set_start+0xdc>
    c474:	e59f1050 	ldr	r1, [pc, #80]	; c4cc <kmalloc_init_set_start+0xe0>
    c478:	e59f0058 	ldr	r0, [pc, #88]	; c4d8 <kmalloc_init_set_start+0xec>
    c47c:	eb00019e 	bl	cafc <printk>
    c480:	eb0002cd 	bl	cfbc <clean_reboot>
    c484:	e3a03034 	mov	r3, #52, 0	; 0x34
    c488:	e59f2038 	ldr	r2, [pc, #56]	; c4c8 <kmalloc_init_set_start+0xdc>
    c48c:	e59f1038 	ldr	r1, [pc, #56]	; c4cc <kmalloc_init_set_start+0xe0>
    c490:	e59f0044 	ldr	r0, [pc, #68]	; c4dc <kmalloc_init_set_start+0xf0>
    c494:	eb000198 	bl	cafc <printk>
    c498:	eb0002c7 	bl	cfbc <clean_reboot>
    c49c:	e59f3020 	ldr	r3, [pc, #32]	; c4c4 <kmalloc_init_set_start+0xd8>
    c4a0:	e5933000 	ldr	r3, [r3]
    c4a4:	e58d3004 	str	r3, [sp, #4]
    c4a8:	e58d4000 	str	r4, [sp]
    c4ac:	e3a03038 	mov	r3, #56, 0	; 0x38
    c4b0:	e59f2010 	ldr	r2, [pc, #16]	; c4c8 <kmalloc_init_set_start+0xdc>
    c4b4:	e59f1010 	ldr	r1, [pc, #16]	; c4cc <kmalloc_init_set_start+0xe0>
    c4b8:	e59f0020 	ldr	r0, [pc, #32]	; c4e0 <kmalloc_init_set_start+0xf4>
    c4bc:	eb00018e 	bl	cafc <printk>
    c4c0:	eb0002bd 	bl	cfbc <clean_reboot>
    c4c4:	0000f8ac 	.word	0x0000f8ac
    c4c8:	0000f300 	.word	0x0000f300
    c4cc:	0000f0f0 	.word	0x0000f0f0
    c4d0:	0000f0fc 	.word	0x0000f0fc
    c4d4:	0000f124 	.word	0x0000f124
    c4d8:	0000d658 	.word	0x0000d658
    c4dc:	0000f130 	.word	0x0000f130
    c4e0:	0000f17c 	.word	0x0000f17c

0000c4e4 <kmalloc_notzero>:
    c4e4:	e52de004 	push	{lr}		; (str lr, [sp, #-4]!)
    c4e8:	e24dd00c 	sub	sp, sp, #12, 0
    c4ec:	e3500000 	cmp	r0, #0, 0
    c4f0:	0a00000f 	beq	c534 <kmalloc_notzero+0x50>
    c4f4:	e2800007 	add	r0, r0, #7, 0
    c4f8:	e3c03007 	bic	r3, r0, #7, 0
    c4fc:	e59f20ac 	ldr	r2, [pc, #172]	; c5b0 <kmalloc_notzero+0xcc>
    c500:	e5920008 	ldr	r0, [r2, #8]
    c504:	e3100007 	tst	r0, #7, 0
    c508:	1a000011 	bne	c554 <kmalloc_notzero+0x70>
    c50c:	e3500000 	cmp	r0, #0, 0
    c510:	0a000017 	beq	c574 <kmalloc_notzero+0x90>
    c514:	e0802003 	add	r2, r0, r3
    c518:	e59f1090 	ldr	r1, [pc, #144]	; c5b0 <kmalloc_notzero+0xcc>
    c51c:	e5812008 	str	r2, [r1, #8]
    c520:	e5911000 	ldr	r1, [r1]
    c524:	e1520001 	cmp	r2, r1
    c528:	8a000017 	bhi	c58c <kmalloc_notzero+0xa8>
    c52c:	e28dd00c 	add	sp, sp, #12, 0
    c530:	e49df004 	pop	{pc}		; (ldr pc, [sp], #4)
    c534:	e59f3078 	ldr	r3, [pc, #120]	; c5b4 <kmalloc_notzero+0xd0>
    c538:	e58d3000 	str	r3, [sp]
    c53c:	e3a03041 	mov	r3, #65, 0	; 0x41
    c540:	e59f2070 	ldr	r2, [pc, #112]	; c5b8 <kmalloc_notzero+0xd4>
    c544:	e59f1070 	ldr	r1, [pc, #112]	; c5bc <kmalloc_notzero+0xd8>
    c548:	e59f0070 	ldr	r0, [pc, #112]	; c5c0 <kmalloc_notzero+0xdc>
    c54c:	eb00016a 	bl	cafc <printk>
    c550:	eb000299 	bl	cfbc <clean_reboot>
    c554:	e59f3068 	ldr	r3, [pc, #104]	; c5c4 <kmalloc_notzero+0xe0>
    c558:	e58d3000 	str	r3, [sp]
    c55c:	e3a03044 	mov	r3, #68, 0	; 0x44
    c560:	e59f2050 	ldr	r2, [pc, #80]	; c5b8 <kmalloc_notzero+0xd4>
    c564:	e59f1050 	ldr	r1, [pc, #80]	; c5bc <kmalloc_notzero+0xd8>
    c568:	e59f0050 	ldr	r0, [pc, #80]	; c5c0 <kmalloc_notzero+0xdc>
    c56c:	eb000162 	bl	cafc <printk>
    c570:	eb000291 	bl	cfbc <clean_reboot>
    c574:	e3a03048 	mov	r3, #72, 0	; 0x48
    c578:	e59f2038 	ldr	r2, [pc, #56]	; c5b8 <kmalloc_notzero+0xd4>
    c57c:	e59f1038 	ldr	r1, [pc, #56]	; c5bc <kmalloc_notzero+0xd8>
    c580:	e59f0040 	ldr	r0, [pc, #64]	; c5c8 <kmalloc_notzero+0xe4>
    c584:	eb00015c 	bl	cafc <printk>
    c588:	eb00028b 	bl	cfbc <clean_reboot>
    c58c:	e0422001 	sub	r2, r2, r1
    c590:	e58d2004 	str	r2, [sp, #4]
    c594:	e58d3000 	str	r3, [sp]
    c598:	e3a0304c 	mov	r3, #76, 0	; 0x4c
    c59c:	e59f2014 	ldr	r2, [pc, #20]	; c5b8 <kmalloc_notzero+0xd4>
    c5a0:	e59f1014 	ldr	r1, [pc, #20]	; c5bc <kmalloc_notzero+0xd8>
    c5a4:	e59f0020 	ldr	r0, [pc, #32]	; c5cc <kmalloc_notzero+0xe8>
    c5a8:	eb000153 	bl	cafc <printk>
    c5ac:	eb000282 	bl	cfbc <clean_reboot>
    c5b0:	0000f8ac 	.word	0x0000f8ac
    c5b4:	0000f128 	.word	0x0000f128
    c5b8:	0000f318 	.word	0x0000f318
    c5bc:	0000f0f0 	.word	0x0000f0f0
    c5c0:	0000d658 	.word	0x0000d658
    c5c4:	0000f1c0 	.word	0x0000f1c0
    c5c8:	0000f1d8 	.word	0x0000f1d8
    c5cc:	0000f204 	.word	0x0000f204

0000c5d0 <kmalloc>:
    c5d0:	e92d4030 	push	{r4, r5, lr}
    c5d4:	e24dd00c 	sub	sp, sp, #12, 0
    c5d8:	e2504000 	subs	r4, r0, #0, 0
    c5dc:	0a000008 	beq	c604 <kmalloc+0x34>
    c5e0:	e1a00004 	mov	r0, r4
    c5e4:	ebffffbe 	bl	c4e4 <kmalloc_notzero>
    c5e8:	e1a05000 	mov	r5, r0
    c5ec:	e1a02004 	mov	r2, r4
    c5f0:	e3a01000 	mov	r1, #0, 0
    c5f4:	eb000118 	bl	ca5c <memset>
    c5f8:	e1a00005 	mov	r0, r5
    c5fc:	e28dd00c 	add	sp, sp, #12, 0
    c600:	e8bd8030 	pop	{r4, r5, pc}
    c604:	e59f3018 	ldr	r3, [pc, #24]	; c624 <kmalloc+0x54>
    c608:	e58d3000 	str	r3, [sp]
    c60c:	e3a03054 	mov	r3, #84, 0	; 0x54
    c610:	e59f2010 	ldr	r2, [pc, #16]	; c628 <kmalloc+0x58>
    c614:	e59f1010 	ldr	r1, [pc, #16]	; c62c <kmalloc+0x5c>
    c618:	e59f0010 	ldr	r0, [pc, #16]	; c630 <kmalloc+0x60>
    c61c:	eb000136 	bl	cafc <printk>
    c620:	eb000265 	bl	cfbc <clean_reboot>
    c624:	0000f128 	.word	0x0000f128
    c628:	0000f328 	.word	0x0000f328
    c62c:	0000f0f0 	.word	0x0000f0f0
    c630:	0000d658 	.word	0x0000d658

0000c634 <kmalloc_aligned>:
    c634:	e52de004 	push	{lr}		; (str lr, [sp, #-4]!)
    c638:	e24dd00c 	sub	sp, sp, #12, 0
    c63c:	e3500000 	cmp	r0, #0, 0
    c640:	0a000014 	beq	c698 <kmalloc_aligned+0x64>
    c644:	e2613000 	rsb	r3, r1, #0, 0
    c648:	e1d13003 	bics	r3, r1, r3
    c64c:	1a000019 	bne	c6b8 <kmalloc_aligned+0x84>
    c650:	e3510008 	cmp	r1, #8, 0
    c654:	33a01008 	movcc	r1, #8, 0
    c658:	e59f30b8 	ldr	r3, [pc, #184]	; c718 <kmalloc_aligned+0xe4>
    c65c:	e5932008 	ldr	r2, [r3, #8]
    c660:	e2613000 	rsb	r3, r1, #0, 0
    c664:	e1d1c003 	bics	ip, r1, r3
    c668:	1a00001a 	bne	c6d8 <kmalloc_aligned+0xa4>
    c66c:	e0822001 	add	r2, r2, r1
    c670:	e2422001 	sub	r2, r2, #1, 0
    c674:	e0033002 	and	r3, r3, r2
    c678:	e2411001 	sub	r1, r1, #1, 0
    c67c:	e1110003 	tst	r1, r3
    c680:	1a00001c 	bne	c6f8 <kmalloc_aligned+0xc4>
    c684:	e59f208c 	ldr	r2, [pc, #140]	; c718 <kmalloc_aligned+0xe4>
    c688:	e5823008 	str	r3, [r2, #8]
    c68c:	ebffffcf 	bl	c5d0 <kmalloc>
    c690:	e28dd00c 	add	sp, sp, #12, 0
    c694:	e49df004 	pop	{pc}		; (ldr pc, [sp], #4)
    c698:	e59f307c 	ldr	r3, [pc, #124]	; c71c <kmalloc_aligned+0xe8>
    c69c:	e58d3000 	str	r3, [sp]
    c6a0:	e3a0305e 	mov	r3, #94, 0	; 0x5e
    c6a4:	e59f2074 	ldr	r2, [pc, #116]	; c720 <kmalloc_aligned+0xec>
    c6a8:	e59f1074 	ldr	r1, [pc, #116]	; c724 <kmalloc_aligned+0xf0>
    c6ac:	e59f0074 	ldr	r0, [pc, #116]	; c728 <kmalloc_aligned+0xf4>
    c6b0:	eb000111 	bl	cafc <printk>
    c6b4:	eb000240 	bl	cfbc <clean_reboot>
    c6b8:	e59f306c 	ldr	r3, [pc, #108]	; c72c <kmalloc_aligned+0xf8>
    c6bc:	e58d3000 	str	r3, [sp]
    c6c0:	e3a0305f 	mov	r3, #95, 0	; 0x5f
    c6c4:	e59f2054 	ldr	r2, [pc, #84]	; c720 <kmalloc_aligned+0xec>
    c6c8:	e59f1054 	ldr	r1, [pc, #84]	; c724 <kmalloc_aligned+0xf0>
    c6cc:	e59f005c 	ldr	r0, [pc, #92]	; c730 <kmalloc_aligned+0xfc>
    c6d0:	eb000109 	bl	cafc <printk>
    c6d4:	eb000238 	bl	cfbc <clean_reboot>
    c6d8:	e59f3054 	ldr	r3, [pc, #84]	; c734 <kmalloc_aligned+0x100>
    c6dc:	e58d3000 	str	r3, [sp]
    c6e0:	e3a03011 	mov	r3, #17, 0
    c6e4:	e59f204c 	ldr	r2, [pc, #76]	; c738 <kmalloc_aligned+0x104>
    c6e8:	e59f1034 	ldr	r1, [pc, #52]	; c724 <kmalloc_aligned+0xf0>
    c6ec:	e59f0034 	ldr	r0, [pc, #52]	; c728 <kmalloc_aligned+0xf4>
    c6f0:	eb000101 	bl	cafc <printk>
    c6f4:	eb000230 	bl	cfbc <clean_reboot>
    c6f8:	e59f303c 	ldr	r3, [pc, #60]	; c73c <kmalloc_aligned+0x108>
    c6fc:	e58d3000 	str	r3, [sp]
    c700:	e3a03066 	mov	r3, #102, 0	; 0x66
    c704:	e59f2014 	ldr	r2, [pc, #20]	; c720 <kmalloc_aligned+0xec>
    c708:	e59f1014 	ldr	r1, [pc, #20]	; c724 <kmalloc_aligned+0xf0>
    c70c:	e59f002c 	ldr	r0, [pc, #44]	; c740 <kmalloc_aligned+0x10c>
    c710:	eb0000f9 	bl	cafc <printk>
    c714:	eb000228 	bl	cfbc <clean_reboot>
    c718:	0000f8ac 	.word	0x0000f8ac
    c71c:	0000f128 	.word	0x0000f128
    c720:	0000f330 	.word	0x0000f330
    c724:	0000f0f0 	.word	0x0000f0f0
    c728:	0000d658 	.word	0x0000d658
    c72c:	0000f28c 	.word	0x0000f28c
    c730:	0000f24c 	.word	0x0000f24c
    c734:	0000f2a0 	.word	0x0000f2a0
    c738:	0000f340 	.word	0x0000f340
    c73c:	0000f2e4 	.word	0x0000f2e4
    c740:	0000f2ac 	.word	0x0000f2ac

0000c744 <kfree_all>:
    c744:	e59f3008 	ldr	r3, [pc, #8]	; c754 <kfree_all+0x10>
    c748:	e5932004 	ldr	r2, [r3, #4]
    c74c:	e5832008 	str	r2, [r3, #8]
    c750:	e12fff1e 	bx	lr
    c754:	0000f8ac 	.word	0x0000f8ac

0000c758 <disable_UART>:
    c758:	e92d4010 	push	{r4, lr}
    c75c:	e59f4014 	ldr	r4, [pc, #20]	; c778 <disable_UART+0x20>
    c760:	e1a00004 	mov	r0, r4
    c764:	ebffee30 	bl	802c <GET32>
    c768:	e2001006 	and	r1, r0, #6, 0
    c76c:	e1a00004 	mov	r0, r4
    c770:	ebffee2b 	bl	8024 <PUT32>
    c774:	e8bd8010 	pop	{r4, pc}
    c778:	20215004 	.word	0x20215004

0000c77c <uart_init>:
    c77c:	e92d4010 	push	{r4, lr}
    c780:	eb000278 	bl	d168 <dev_barrier>
    c784:	e3a01002 	mov	r1, #2, 0
    c788:	e3a0000e 	mov	r0, #14, 0
    c78c:	eb0002de 	bl	d30c <gpio_set_function>
    c790:	e3a01002 	mov	r1, #2, 0
    c794:	e3a0000f 	mov	r0, #15, 0
    c798:	eb0002db 	bl	d30c <gpio_set_function>
    c79c:	eb000271 	bl	d168 <dev_barrier>
    c7a0:	e59f4074 	ldr	r4, [pc, #116]	; c81c <uart_init+0xa0>
    c7a4:	e1a00004 	mov	r0, r4
    c7a8:	ebffee1f 	bl	802c <GET32>
    c7ac:	e3801001 	orr	r1, r0, #1, 0
    c7b0:	e1a00004 	mov	r0, r4
    c7b4:	ebffee1a 	bl	8024 <PUT32>
    c7b8:	eb00026a 	bl	d168 <dev_barrier>
    c7bc:	e284405c 	add	r4, r4, #92, 0	; 0x5c
    c7c0:	e3a01000 	mov	r1, #0, 0
    c7c4:	e1a00004 	mov	r0, r4
    c7c8:	ebffee15 	bl	8024 <PUT32>
    c7cc:	e3a01000 	mov	r1, #0, 0
    c7d0:	e59f0048 	ldr	r0, [pc, #72]	; c820 <uart_init+0xa4>
    c7d4:	ebffee12 	bl	8024 <PUT32>
    c7d8:	e3a01006 	mov	r1, #6, 0
    c7dc:	e59f0040 	ldr	r0, [pc, #64]	; c824 <uart_init+0xa8>
    c7e0:	ebffee0f 	bl	8024 <PUT32>
    c7e4:	e3a01003 	mov	r1, #3, 0
    c7e8:	e59f0038 	ldr	r0, [pc, #56]	; c828 <uart_init+0xac>
    c7ec:	ebffee0c 	bl	8024 <PUT32>
    c7f0:	e3a01000 	mov	r1, #0, 0
    c7f4:	e59f0030 	ldr	r0, [pc, #48]	; c82c <uart_init+0xb0>
    c7f8:	ebffee09 	bl	8024 <PUT32>
    c7fc:	e59f102c 	ldr	r1, [pc, #44]	; c830 <uart_init+0xb4>
    c800:	e59f002c 	ldr	r0, [pc, #44]	; c834 <uart_init+0xb8>
    c804:	ebffee06 	bl	8024 <PUT32>
    c808:	e3a01003 	mov	r1, #3, 0
    c80c:	e1a00004 	mov	r0, r4
    c810:	ebffee03 	bl	8024 <PUT32>
    c814:	eb000253 	bl	d168 <dev_barrier>
    c818:	e8bd8010 	pop	{r4, pc}
    c81c:	20215004 	.word	0x20215004
    c820:	20215044 	.word	0x20215044
    c824:	20215048 	.word	0x20215048
    c828:	2021504c 	.word	0x2021504c
    c82c:	20215050 	.word	0x20215050
    c830:	0000010e 	.word	0x0000010e
    c834:	20215068 	.word	0x20215068

0000c838 <uart_tx_is_empty>:
    c838:	e92d4010 	push	{r4, lr}
    c83c:	e59f0008 	ldr	r0, [pc, #8]	; c84c <uart_tx_is_empty+0x14>
    c840:	ebffedf9 	bl	802c <GET32>
    c844:	e2000040 	and	r0, r0, #64, 0	; 0x40
    c848:	e8bd8010 	pop	{r4, pc}
    c84c:	20215054 	.word	0x20215054

0000c850 <uart_can_put8>:
    c850:	e92d4010 	push	{r4, lr}
    c854:	e59f0010 	ldr	r0, [pc, #16]	; c86c <uart_can_put8+0x1c>
    c858:	ebffedf3 	bl	802c <GET32>
    c85c:	e3100002 	tst	r0, #2, 0
    c860:	13a00001 	movne	r0, #1, 0
    c864:	03a00000 	moveq	r0, #0, 0
    c868:	e8bd8010 	pop	{r4, pc}
    c86c:	20215064 	.word	0x20215064

0000c870 <uart_put8>:
    c870:	e92d4010 	push	{r4, lr}
    c874:	e1a04000 	mov	r4, r0
    c878:	ebfffff4 	bl	c850 <uart_can_put8>
    c87c:	e3500000 	cmp	r0, #0, 0
    c880:	0afffffc 	beq	c878 <uart_put8+0x8>
    c884:	e1a01004 	mov	r1, r4
    c888:	e59f0008 	ldr	r0, [pc, #8]	; c898 <uart_put8+0x28>
    c88c:	ebffede4 	bl	8024 <PUT32>
    c890:	e3a00001 	mov	r0, #1, 0
    c894:	e8bd8010 	pop	{r4, pc}
    c898:	20215040 	.word	0x20215040

0000c89c <uart_has_data>:
    c89c:	e92d4010 	push	{r4, lr}
    c8a0:	e59f0008 	ldr	r0, [pc, #8]	; c8b0 <uart_has_data+0x14>
    c8a4:	ebffede0 	bl	802c <GET32>
    c8a8:	e2000001 	and	r0, r0, #1, 0
    c8ac:	e8bd8010 	pop	{r4, pc}
    c8b0:	20215064 	.word	0x20215064

0000c8b4 <uart_get8>:
    c8b4:	e92d4010 	push	{r4, lr}
    c8b8:	ebfffff7 	bl	c89c <uart_has_data>
    c8bc:	e3500000 	cmp	r0, #0, 0
    c8c0:	0afffffc 	beq	c8b8 <uart_get8+0x4>
    c8c4:	e59f0008 	ldr	r0, [pc, #8]	; c8d4 <uart_get8+0x20>
    c8c8:	ebffedd7 	bl	802c <GET32>
    c8cc:	e6ef0070 	uxtb	r0, r0
    c8d0:	e8bd8010 	pop	{r4, pc}
    c8d4:	20215040 	.word	0x20215040

0000c8d8 <uart_get8_async>:
    c8d8:	e92d4010 	push	{r4, lr}
    c8dc:	ebffffee 	bl	c89c <uart_has_data>
    c8e0:	e3500000 	cmp	r0, #0, 0
    c8e4:	0a000001 	beq	c8f0 <uart_get8_async+0x18>
    c8e8:	ebfffff1 	bl	c8b4 <uart_get8>
    c8ec:	e8bd8010 	pop	{r4, pc}
    c8f0:	e3e00000 	mvn	r0, #0, 0
    c8f4:	e8bd8010 	pop	{r4, pc}

0000c8f8 <uart_flush_tx>:
    c8f8:	e92d4010 	push	{r4, lr}
    c8fc:	ebffffcd 	bl	c838 <uart_tx_is_empty>
    c900:	e3500000 	cmp	r0, #0, 0
    c904:	18bd8010 	popne	{r4, pc}
    c908:	eb00022a 	bl	d1b8 <rpi_wait>
    c90c:	eafffffa 	b	c8fc <uart_flush_tx+0x4>

0000c910 <uart_disable>:
    c910:	e92d4010 	push	{r4, lr}
    c914:	ebfffff7 	bl	c8f8 <uart_flush_tx>
    c918:	e3a01000 	mov	r1, #0, 0
    c91c:	e59f0010 	ldr	r0, [pc, #16]	; c934 <uart_disable+0x24>
    c920:	ebffedbf 	bl	8024 <PUT32>
    c924:	eb00020f 	bl	d168 <dev_barrier>
    c928:	ebffff8a 	bl	c758 <disable_UART>
    c92c:	eb00020d 	bl	d168 <dev_barrier>
    c930:	e8bd8010 	pop	{r4, pc}
    c934:	20215060 	.word	0x20215060

0000c938 <memcpy256>:
    c938:	e92d40f0 	push	{r4, r5, r6, r7, lr}
    c93c:	e24dd00c 	sub	sp, sp, #12, 0
    c940:	e212401f 	ands	r4, r2, #31, 0
    c944:	01a06000 	moveq	r6, r0
    c948:	01a07001 	moveq	r7, r1
    c94c:	01a052a2 	lsreq	r5, r2, #5
    c950:	0a00000f 	beq	c994 <memcpy256+0x5c>
    c954:	e3a03020 	mov	r3, #32, 0
    c958:	e58d3004 	str	r3, [sp, #4]
    c95c:	e58d2000 	str	r2, [sp]
    c960:	e3a0300f 	mov	r3, #15, 0
    c964:	e59f2038 	ldr	r2, [pc, #56]	; c9a4 <memcpy256+0x6c>
    c968:	e59f1038 	ldr	r1, [pc, #56]	; c9a8 <memcpy256+0x70>
    c96c:	e59f0038 	ldr	r0, [pc, #56]	; c9ac <memcpy256+0x74>
    c970:	eb000061 	bl	cafc <printk>
    c974:	eb000190 	bl	cfbc <clean_reboot>
    c978:	e086c284 	add	ip, r6, r4, lsl #5
    c97c:	e087e284 	add	lr, r7, r4, lsl #5
    c980:	e8be000f 	ldm	lr!, {r0, r1, r2, r3}
    c984:	e8ac000f 	stmia	ip!, {r0, r1, r2, r3}
    c988:	e89e000f 	ldm	lr, {r0, r1, r2, r3}
    c98c:	e88c000f 	stm	ip, {r0, r1, r2, r3}
    c990:	e2844001 	add	r4, r4, #1, 0
    c994:	e1540005 	cmp	r4, r5
    c998:	3afffff6 	bcc	c978 <memcpy256+0x40>
    c99c:	e28dd00c 	add	sp, sp, #12, 0
    c9a0:	e8bd80f0 	pop	{r4, r5, r6, r7, pc}
    c9a4:	0000f394 	.word	0x0000f394
    c9a8:	0000f348 	.word	0x0000f348
    c9ac:	0000f358 	.word	0x0000f358

0000c9b0 <memcpy>:
    c9b0:	e3100007 	tst	r0, #7, 0
    c9b4:	1a00000f 	bne	c9f8 <memcpy+0x48>
    c9b8:	e3110007 	tst	r1, #7, 0
    c9bc:	1a00000d 	bne	c9f8 <memcpy+0x48>
    c9c0:	e2123007 	ands	r3, r2, #7, 0
    c9c4:	1a00000b 	bne	c9f8 <memcpy+0x48>
    c9c8:	e1a021a2 	lsr	r2, r2, #3
    c9cc:	e1530002 	cmp	r3, r2
    c9d0:	212fff1e 	bxcs	lr
    c9d4:	e92d0030 	push	{r4, r5}
    c9d8:	e1a0c183 	lsl	ip, r3, #3
    c9dc:	e18140dc 	ldrd	r4, [r1, ip]
    c9e0:	e18040fc 	strd	r4, [r0, ip]
    c9e4:	e2833001 	add	r3, r3, #1, 0
    c9e8:	e1530002 	cmp	r3, r2
    c9ec:	3afffff9 	bcc	c9d8 <memcpy+0x28>
    c9f0:	e8bd0030 	pop	{r4, r5}
    c9f4:	e12fff1e 	bx	lr
    c9f8:	e2103003 	ands	r3, r0, #3, 0
    c9fc:	1a000011 	bne	ca48 <memcpy+0x98>
    ca00:	e211c003 	ands	ip, r1, #3, 0
    ca04:	1a00000c 	bne	ca3c <memcpy+0x8c>
    ca08:	e2123003 	ands	r3, r2, #3, 0
    ca0c:	1a00000f 	bne	ca50 <memcpy+0xa0>
    ca10:	e1a02122 	lsr	r2, r2, #2
    ca14:	ea000002 	b	ca24 <memcpy+0x74>
    ca18:	e791c103 	ldr	ip, [r1, r3, lsl #2]
    ca1c:	e780c103 	str	ip, [r0, r3, lsl #2]
    ca20:	e2833001 	add	r3, r3, #1, 0
    ca24:	e1530002 	cmp	r3, r2
    ca28:	3afffffa 	bcc	ca18 <memcpy+0x68>
    ca2c:	e12fff1e 	bx	lr
    ca30:	e7d1c003 	ldrb	ip, [r1, r3]
    ca34:	e7c0c003 	strb	ip, [r0, r3]
    ca38:	e2833001 	add	r3, r3, #1, 0
    ca3c:	e1530002 	cmp	r3, r2
    ca40:	3afffffa 	bcc	ca30 <memcpy+0x80>
    ca44:	e12fff1e 	bx	lr
    ca48:	e3a03000 	mov	r3, #0, 0
    ca4c:	eafffffa 	b	ca3c <memcpy+0x8c>
    ca50:	e1a0300c 	mov	r3, ip
    ca54:	eafffff8 	b	ca3c <memcpy+0x8c>

0000ca58 <memcpy_end>:
    ca58:	e12fff1e 	bx	lr

0000ca5c <memset>:
    ca5c:	e3520000 	cmp	r2, #0, 0
    ca60:	012fff1e 	bxeq	lr
    ca64:	e3510000 	cmp	r1, #0, 0
    ca68:	1a000007 	bne	ca8c <memset+0x30>
    ca6c:	e3100007 	tst	r0, #7, 0
    ca70:	1a000001 	bne	ca7c <memset+0x20>
    ca74:	e3120007 	tst	r2, #7, 0
    ca78:	0a000011 	beq	cac4 <memset+0x68>
    ca7c:	e3100003 	tst	r0, #3, 0
    ca80:	1a000001 	bne	ca8c <memset+0x30>
    ca84:	e3120003 	tst	r2, #3, 0
    ca88:	0a000001 	beq	ca94 <memset+0x38>
    ca8c:	e0802002 	add	r2, r0, r2
    ca90:	ea000008 	b	cab8 <memset+0x5c>
    ca94:	e1a02122 	lsr	r2, r2, #2
    ca98:	ea000001 	b	caa4 <memset+0x48>
    ca9c:	e4801004 	str	r1, [r0], #4
    caa0:	e1a02003 	mov	r2, r3
    caa4:	e2423001 	sub	r3, r2, #1, 0
    caa8:	e3520000 	cmp	r2, #0, 0
    caac:	1afffffa 	bne	ca9c <memset+0x40>
    cab0:	e12fff1e 	bx	lr
    cab4:	e4c01001 	strb	r1, [r0], #1
    cab8:	e1500002 	cmp	r0, r2
    cabc:	3afffffc 	bcc	cab4 <memset+0x58>
    cac0:	e12fff1e 	bx	lr
    cac4:	e1a021a2 	lsr	r2, r2, #3
    cac8:	e2423001 	sub	r3, r2, #1, 0
    cacc:	e3520000 	cmp	r2, #0, 0
    cad0:	012fff1e 	bxeq	lr
    cad4:	e92d0030 	push	{r4, r5}
    cad8:	e1a04001 	mov	r4, r1
    cadc:	e1a05fc1 	asr	r5, r1, #31
    cae0:	e0c040f8 	strd	r4, [r0], #8
    cae4:	e1a02003 	mov	r2, r3
    cae8:	e2433001 	sub	r3, r3, #1, 0
    caec:	e3520000 	cmp	r2, #0, 0
    caf0:	1afffff8 	bne	cad8 <memset+0x7c>
    caf4:	e8bd0030 	pop	{r4, r5}
    caf8:	e12fff1e 	bx	lr

0000cafc <printk>:
    cafc:	e92d000f 	push	{r0, r1, r2, r3}
    cb00:	e52de004 	push	{lr}		; (str lr, [sp, #-4]!)
    cb04:	e24dd00c 	sub	sp, sp, #12, 0
    cb08:	e28d1014 	add	r1, sp, #20, 0
    cb0c:	e58d1004 	str	r1, [sp, #4]
    cb10:	e59d0010 	ldr	r0, [sp, #16]
    cb14:	eb000047 	bl	cc38 <vprintk>
    cb18:	e28dd00c 	add	sp, sp, #12, 0
    cb1c:	e49de004 	pop	{lr}		; (ldr lr, [sp], #4)
    cb20:	e28dd010 	add	sp, sp, #16, 0
    cb24:	e12fff1e 	bx	lr

0000cb28 <emit_val>:
    cb28:	e92d4010 	push	{r4, lr}
    cb2c:	e24dd030 	sub	sp, sp, #48, 0	; 0x30
    cb30:	e350000a 	cmp	r0, #10, 0
    cb34:	0a000014 	beq	cb8c <emit_val+0x64>
    cb38:	e3500010 	cmp	r0, #16, 0
    cb3c:	0a000022 	beq	cbcc <emit_val+0xa4>
    cb40:	e3500002 	cmp	r0, #2, 0
    cb44:	0a000006 	beq	cb64 <emit_val+0x3c>
    cb48:	e58d0000 	str	r0, [sp]
    cb4c:	e3a0301b 	mov	r3, #27, 0
    cb50:	e59f20c0 	ldr	r2, [pc, #192]	; cc18 <emit_val+0xf0>
    cb54:	e59f10c0 	ldr	r1, [pc, #192]	; cc1c <emit_val+0xf4>
    cb58:	e59f00c0 	ldr	r0, [pc, #192]	; cc20 <emit_val+0xf8>
    cb5c:	ebffffe6 	bl	cafc <printk>
    cb60:	eb000115 	bl	cfbc <clean_reboot>
    cb64:	e28d400c 	add	r4, sp, #12, 0
    cb68:	e2012001 	and	r2, r1, #1, 0
    cb6c:	e59f00b0 	ldr	r0, [pc, #176]	; cc24 <emit_val+0xfc>
    cb70:	e7d02002 	ldrb	r2, [r0, r2]
    cb74:	e5c42000 	strb	r2, [r4]
    cb78:	e2844001 	add	r4, r4, #1, 0
    cb7c:	e3510001 	cmp	r1, #1, 0
    cb80:	e1a010a1 	lsr	r1, r1, #1
    cb84:	8afffff7 	bhi	cb68 <emit_val+0x40>
    cb88:	ea00001d 	b	cc04 <emit_val+0xdc>
    cb8c:	e28d400c 	add	r4, sp, #12, 0
    cb90:	e59f3090 	ldr	r3, [pc, #144]	; cc28 <emit_val+0x100>
    cb94:	e0832193 	umull	r2, r3, r3, r1
    cb98:	e1a031a3 	lsr	r3, r3, #3
    cb9c:	e1a00003 	mov	r0, r3
    cba0:	e0833103 	add	r3, r3, r3, lsl #2
    cba4:	e0413083 	sub	r3, r1, r3, lsl #1
    cba8:	e59fc07c 	ldr	ip, [pc, #124]	; cc2c <emit_val+0x104>
    cbac:	e7dcc003 	ldrb	ip, [ip, r3]
    cbb0:	e5c4c000 	strb	ip, [r4]
    cbb4:	e2844001 	add	r4, r4, #1, 0
    cbb8:	e1a03001 	mov	r3, r1
    cbbc:	e1a01000 	mov	r1, r0
    cbc0:	e3530009 	cmp	r3, #9, 0
    cbc4:	8afffff1 	bhi	cb90 <emit_val+0x68>
    cbc8:	ea00000d 	b	cc04 <emit_val+0xdc>
    cbcc:	e28d400c 	add	r4, sp, #12, 0
    cbd0:	e201200f 	and	r2, r1, #15, 0
    cbd4:	e59f0054 	ldr	r0, [pc, #84]	; cc30 <emit_val+0x108>
    cbd8:	e7d02002 	ldrb	r2, [r0, r2]
    cbdc:	e5c42000 	strb	r2, [r4]
    cbe0:	e2844001 	add	r4, r4, #1, 0
    cbe4:	e351000f 	cmp	r1, #15, 0
    cbe8:	e1a01221 	lsr	r1, r1, #4
    cbec:	8afffff7 	bhi	cbd0 <emit_val+0xa8>
    cbf0:	ea000003 	b	cc04 <emit_val+0xdc>
    cbf4:	e59f3038 	ldr	r3, [pc, #56]	; cc34 <emit_val+0x10c>
    cbf8:	e5933000 	ldr	r3, [r3]
    cbfc:	e5740001 	ldrb	r0, [r4, #-1]!
    cc00:	e12fff33 	blx	r3
    cc04:	e28d300c 	add	r3, sp, #12, 0
    cc08:	e1540003 	cmp	r4, r3
    cc0c:	8afffff8 	bhi	cbf4 <emit_val+0xcc>
    cc10:	e28dd030 	add	sp, sp, #48, 0	; 0x30
    cc14:	e8bd8010 	pop	{r4, pc}
    cc18:	0000f458 	.word	0x0000f458
    cc1c:	0000f3a0 	.word	0x0000f3a0
    cc20:	0000f3b0 	.word	0x0000f3b0
    cc24:	0000f3d4 	.word	0x0000f3d4
    cc28:	cccccccd 	.word	0xcccccccd
    cc2c:	0000f3d8 	.word	0x0000f3d8
    cc30:	0000f3e4 	.word	0x0000f3e4
    cc34:	0000f82c 	.word	0x0000f82c

0000cc38 <vprintk>:
    cc38:	e92d4030 	push	{r4, r5, lr}
    cc3c:	e24dd014 	sub	sp, sp, #20, 0
    cc40:	e1a04000 	mov	r4, r0
    cc44:	e58d100c 	str	r1, [sp, #12]
    cc48:	ea000003 	b	cc5c <vprintk+0x24>
    cc4c:	e59f3288 	ldr	r3, [pc, #648]	; cedc <vprintk+0x2a4>
    cc50:	e5933000 	ldr	r3, [r3]
    cc54:	e12fff33 	blx	r3
    cc58:	e2844001 	add	r4, r4, #1, 0
    cc5c:	e5d40000 	ldrb	r0, [r4]
    cc60:	e3500000 	cmp	r0, #0, 0
    cc64:	0a00009a 	beq	ced4 <vprintk+0x29c>
    cc68:	e3500025 	cmp	r0, #37, 0	; 0x25
    cc6c:	1afffff6 	bne	cc4c <vprintk+0x14>
    cc70:	e2845001 	add	r5, r4, #1, 0
    cc74:	e5d42001 	ldrb	r2, [r4, #1]
    cc78:	e2423062 	sub	r3, r2, #98, 0	; 0x62
    cc7c:	e3530016 	cmp	r3, #22, 0
    cc80:	979ff103 	ldrls	pc, [pc, r3, lsl #2]
    cc84:	ea00008b 	b	ceb8 <vprintk+0x280>
    cc88:	0000cce4 	.word	0x0000cce4
    cc8c:	0000cd24 	.word	0x0000cd24
    cc90:	0000ce3c 	.word	0x0000ce3c
    cc94:	0000ceb8 	.word	0x0000ceb8
    cc98:	0000ceb8 	.word	0x0000ceb8
    cc9c:	0000ceb8 	.word	0x0000ceb8
    cca0:	0000ceb8 	.word	0x0000ceb8
    cca4:	0000ceb8 	.word	0x0000ceb8
    cca8:	0000ceb8 	.word	0x0000ceb8
    ccac:	0000ceb8 	.word	0x0000ceb8
    ccb0:	0000cd48 	.word	0x0000cd48
    ccb4:	0000ceb8 	.word	0x0000ceb8
    ccb8:	0000ceb8 	.word	0x0000ceb8
    ccbc:	0000ceb8 	.word	0x0000ceb8
    ccc0:	0000ce00 	.word	0x0000ce00
    ccc4:	0000ceb8 	.word	0x0000ceb8
    ccc8:	0000ceb8 	.word	0x0000ceb8
    cccc:	0000ce80 	.word	0x0000ce80
    ccd0:	0000ceb8 	.word	0x0000ceb8
    ccd4:	0000cd04 	.word	0x0000cd04
    ccd8:	0000ceb8 	.word	0x0000ceb8
    ccdc:	0000ceb8 	.word	0x0000ceb8
    cce0:	0000ce00 	.word	0x0000ce00
    cce4:	e59d300c 	ldr	r3, [sp, #12]
    cce8:	e2832004 	add	r2, r3, #4, 0
    ccec:	e58d200c 	str	r2, [sp, #12]
    ccf0:	e5931000 	ldr	r1, [r3]
    ccf4:	e3a00002 	mov	r0, #2, 0
    ccf8:	ebffff8a 	bl	cb28 <emit_val>
    ccfc:	e1a04005 	mov	r4, r5
    cd00:	eaffffd4 	b	cc58 <vprintk+0x20>
    cd04:	e59d300c 	ldr	r3, [sp, #12]
    cd08:	e2832004 	add	r2, r3, #4, 0
    cd0c:	e58d200c 	str	r2, [sp, #12]
    cd10:	e5931000 	ldr	r1, [r3]
    cd14:	e3a0000a 	mov	r0, #10, 0
    cd18:	ebffff82 	bl	cb28 <emit_val>
    cd1c:	e1a04005 	mov	r4, r5
    cd20:	eaffffcc 	b	cc58 <vprintk+0x20>
    cd24:	e59f31b0 	ldr	r3, [pc, #432]	; cedc <vprintk+0x2a4>
    cd28:	e5932000 	ldr	r2, [r3]
    cd2c:	e59d300c 	ldr	r3, [sp, #12]
    cd30:	e2831004 	add	r1, r3, #4, 0
    cd34:	e58d100c 	str	r1, [sp, #12]
    cd38:	e5930000 	ldr	r0, [r3]
    cd3c:	e12fff32 	blx	r2
    cd40:	e1a04005 	mov	r4, r5
    cd44:	eaffffc3 	b	cc58 <vprintk+0x20>
    cd48:	e2842002 	add	r2, r4, #2, 0
    cd4c:	e5d43002 	ldrb	r3, [r4, #2]
    cd50:	e353006c 	cmp	r3, #108, 0	; 0x6c
    cd54:	1a000018 	bne	cdbc <vprintk+0x184>
    cd58:	e2845003 	add	r5, r4, #3, 0
    cd5c:	e5d43003 	ldrb	r3, [r4, #3]
    cd60:	e3530078 	cmp	r3, #120, 0	; 0x78
    cd64:	1a00001b 	bne	cdd8 <vprintk+0x1a0>
    cd68:	e59f416c 	ldr	r4, [pc, #364]	; cedc <vprintk+0x2a4>
    cd6c:	e5943000 	ldr	r3, [r4]
    cd70:	e3a00030 	mov	r0, #48, 0	; 0x30
    cd74:	e12fff33 	blx	r3
    cd78:	e5943000 	ldr	r3, [r4]
    cd7c:	e3a00078 	mov	r0, #120, 0	; 0x78
    cd80:	e12fff33 	blx	r3
    cd84:	e59d300c 	ldr	r3, [sp, #12]
    cd88:	e2833007 	add	r3, r3, #7, 0
    cd8c:	e3c33007 	bic	r3, r3, #7, 0
    cd90:	e2832008 	add	r2, r3, #8, 0
    cd94:	e58d200c 	str	r2, [sp, #12]
    cd98:	e5934000 	ldr	r4, [r3]
    cd9c:	e5931004 	ldr	r1, [r3, #4]
    cda0:	e3510000 	cmp	r1, #0, 0
    cda4:	1a000012 	bne	cdf4 <vprintk+0x1bc>
    cda8:	e1a01004 	mov	r1, r4
    cdac:	e3a00010 	mov	r0, #16, 0
    cdb0:	ebffff5c 	bl	cb28 <emit_val>
    cdb4:	e1a04005 	mov	r4, r5
    cdb8:	eaffffa6 	b	cc58 <vprintk+0x20>
    cdbc:	e58d2000 	str	r2, [sp]
    cdc0:	e3a0303b 	mov	r3, #59, 0	; 0x3b
    cdc4:	e59f2114 	ldr	r2, [pc, #276]	; cee0 <vprintk+0x2a8>
    cdc8:	e59f1114 	ldr	r1, [pc, #276]	; cee4 <vprintk+0x2ac>
    cdcc:	e59f0114 	ldr	r0, [pc, #276]	; cee8 <vprintk+0x2b0>
    cdd0:	ebffff49 	bl	cafc <printk>
    cdd4:	eb000078 	bl	cfbc <clean_reboot>
    cdd8:	e58d5000 	str	r5, [sp]
    cddc:	e3a0303e 	mov	r3, #62, 0	; 0x3e
    cde0:	e59f20f8 	ldr	r2, [pc, #248]	; cee0 <vprintk+0x2a8>
    cde4:	e59f10f8 	ldr	r1, [pc, #248]	; cee4 <vprintk+0x2ac>
    cde8:	e59f00f8 	ldr	r0, [pc, #248]	; cee8 <vprintk+0x2b0>
    cdec:	ebffff42 	bl	cafc <printk>
    cdf0:	eb000071 	bl	cfbc <clean_reboot>
    cdf4:	e3a00010 	mov	r0, #16, 0
    cdf8:	ebffff4a 	bl	cb28 <emit_val>
    cdfc:	eaffffe9 	b	cda8 <vprintk+0x170>
    ce00:	e59f40d4 	ldr	r4, [pc, #212]	; cedc <vprintk+0x2a4>
    ce04:	e5943000 	ldr	r3, [r4]
    ce08:	e3a00030 	mov	r0, #48, 0	; 0x30
    ce0c:	e12fff33 	blx	r3
    ce10:	e5943000 	ldr	r3, [r4]
    ce14:	e3a00078 	mov	r0, #120, 0	; 0x78
    ce18:	e12fff33 	blx	r3
    ce1c:	e59d300c 	ldr	r3, [sp, #12]
    ce20:	e2832004 	add	r2, r3, #4, 0
    ce24:	e58d200c 	str	r2, [sp, #12]
    ce28:	e5931000 	ldr	r1, [r3]
    ce2c:	e3a00010 	mov	r0, #16, 0
    ce30:	ebffff3c 	bl	cb28 <emit_val>
    ce34:	e1a04005 	mov	r4, r5
    ce38:	eaffff86 	b	cc58 <vprintk+0x20>
    ce3c:	e59d300c 	ldr	r3, [sp, #12]
    ce40:	e2832004 	add	r2, r3, #4, 0
    ce44:	e58d200c 	str	r2, [sp, #12]
    ce48:	e5934000 	ldr	r4, [r3]
    ce4c:	e3540000 	cmp	r4, #0, 0
    ce50:	ba000004 	blt	ce68 <vprintk+0x230>
    ce54:	e1a01004 	mov	r1, r4
    ce58:	e3a0000a 	mov	r0, #10, 0
    ce5c:	ebffff31 	bl	cb28 <emit_val>
    ce60:	e1a04005 	mov	r4, r5
    ce64:	eaffff7b 	b	cc58 <vprintk+0x20>
    ce68:	e59f306c 	ldr	r3, [pc, #108]	; cedc <vprintk+0x2a4>
    ce6c:	e5933000 	ldr	r3, [r3]
    ce70:	e3a0002d 	mov	r0, #45, 0	; 0x2d
    ce74:	e12fff33 	blx	r3
    ce78:	e2644000 	rsb	r4, r4, #0, 0
    ce7c:	eafffff4 	b	ce54 <vprintk+0x21c>
    ce80:	e59d300c 	ldr	r3, [sp, #12]
    ce84:	e2832004 	add	r2, r3, #4, 0
    ce88:	e58d200c 	str	r2, [sp, #12]
    ce8c:	e5934000 	ldr	r4, [r3]
    ce90:	e5d40000 	ldrb	r0, [r4]
    ce94:	e3500000 	cmp	r0, #0, 0
    ce98:	0a000004 	beq	ceb0 <vprintk+0x278>
    ce9c:	e59f3038 	ldr	r3, [pc, #56]	; cedc <vprintk+0x2a4>
    cea0:	e5933000 	ldr	r3, [r3]
    cea4:	e12fff33 	blx	r3
    cea8:	e2844001 	add	r4, r4, #1, 0
    ceac:	eafffff7 	b	ce90 <vprintk+0x258>
    ceb0:	e1a04005 	mov	r4, r5
    ceb4:	eaffff67 	b	cc58 <vprintk+0x20>
    ceb8:	e58d2000 	str	r2, [sp]
    cebc:	e3a03062 	mov	r3, #98, 0	; 0x62
    cec0:	e59f2018 	ldr	r2, [pc, #24]	; cee0 <vprintk+0x2a8>
    cec4:	e59f1018 	ldr	r1, [pc, #24]	; cee4 <vprintk+0x2ac>
    cec8:	e59f001c 	ldr	r0, [pc, #28]	; ceec <vprintk+0x2b4>
    cecc:	ebffff0a 	bl	cafc <printk>
    ced0:	eb000039 	bl	cfbc <clean_reboot>
    ced4:	e28dd014 	add	sp, sp, #20, 0
    ced8:	e8bd8030 	pop	{r4, r5, pc}
    cedc:	0000f82c 	.word	0x0000f82c
    cee0:	0000f464 	.word	0x0000f464
    cee4:	0000f3a0 	.word	0x0000f3a0
    cee8:	0000f3f8 	.word	0x0000f3f8
    ceec:	0000f430 	.word	0x0000f430

0000cef0 <default_putchar>:
    cef0:	e92d4010 	push	{r4, lr}
    cef4:	e1a04000 	mov	r4, r0
    cef8:	e6ef0070 	uxtb	r0, r0
    cefc:	ebfffe5b 	bl	c870 <uart_put8>
    cf00:	e1a00004 	mov	r0, r4
    cf04:	e8bd8010 	pop	{r4, pc}

0000cf08 <rpi_putchar_set>:
    cf08:	e59f300c 	ldr	r3, [pc, #12]	; cf1c <rpi_putchar_set+0x14>
    cf0c:	e5932000 	ldr	r2, [r3]
    cf10:	e5830000 	str	r0, [r3]
    cf14:	e1a00002 	mov	r0, r2
    cf18:	e12fff1e 	bx	lr
    cf1c:	0000f82c 	.word	0x0000f82c

0000cf20 <asm_not_reached_helper>:
    cf20:	e92d4010 	push	{r4, lr}
    cf24:	e1a04000 	mov	r4, r0
    cf28:	e59f0010 	ldr	r0, [pc, #16]	; cf40 <asm_not_reached_helper+0x20>
    cf2c:	ebfffef2 	bl	cafc <printk>
    cf30:	e1a01004 	mov	r1, r4
    cf34:	e59f0008 	ldr	r0, [pc, #8]	; cf44 <asm_not_reached_helper+0x24>
    cf38:	ebfffeef 	bl	cafc <printk>
    cf3c:	eb00001e 	bl	cfbc <clean_reboot>
    cf40:	0000f46c 	.word	0x0000f46c
    cf44:	0000f4a0 	.word	0x0000f4a0

0000cf48 <asm_not_implemented_helper>:
    cf48:	e92d4010 	push	{r4, lr}
    cf4c:	e1a04000 	mov	r4, r0
    cf50:	e59f0010 	ldr	r0, [pc, #16]	; cf68 <asm_not_implemented_helper+0x20>
    cf54:	ebfffee8 	bl	cafc <printk>
    cf58:	e1a01004 	mov	r1, r4
    cf5c:	e59f0008 	ldr	r0, [pc, #8]	; cf6c <asm_not_implemented_helper+0x24>
    cf60:	ebfffee5 	bl	cafc <printk>
    cf64:	eb000014 	bl	cfbc <clean_reboot>
    cf68:	0000f4d4 	.word	0x0000f4d4
    cf6c:	0000f4a0 	.word	0x0000f4a0

0000cf70 <asm_todo_helper>:
    cf70:	e92d4010 	push	{r4, lr}
    cf74:	e1a04001 	mov	r4, r1
    cf78:	e59f0018 	ldr	r0, [pc, #24]	; cf98 <asm_todo_helper+0x28>
    cf7c:	ebfffede 	bl	cafc <printk>
    cf80:	e59f0014 	ldr	r0, [pc, #20]	; cf9c <asm_todo_helper+0x2c>
    cf84:	ebfffedc 	bl	cafc <printk>
    cf88:	e1a01004 	mov	r1, r4
    cf8c:	e59f000c 	ldr	r0, [pc, #12]	; cfa0 <asm_todo_helper+0x30>
    cf90:	ebfffed9 	bl	cafc <printk>
    cf94:	eb000008 	bl	cfbc <clean_reboot>
    cf98:	0000f500 	.word	0x0000f500
    cf9c:	0000f538 	.word	0x0000f538
    cfa0:	0000f56c 	.word	0x0000f56c

0000cfa4 <asm_bad_exception_helper>:
    cfa4:	e92d4010 	push	{r4, lr}
    cfa8:	e1a02000 	mov	r2, r0
    cfac:	e59f0004 	ldr	r0, [pc, #4]	; cfb8 <asm_bad_exception_helper+0x14>
    cfb0:	ebfffed1 	bl	cafc <printk>
    cfb4:	eb000000 	bl	cfbc <clean_reboot>
    cfb8:	0000f574 	.word	0x0000f574

0000cfbc <clean_reboot>:
    cfbc:	e92d4010 	push	{r4, lr}
    cfc0:	e59f0010 	ldr	r0, [pc, #16]	; cfd8 <clean_reboot+0x1c>
    cfc4:	eb0000f2 	bl	d394 <putk>
    cfc8:	ebfffe4a 	bl	c8f8 <uart_flush_tx>
    cfcc:	e3a0000a 	mov	r0, #10, 0
    cfd0:	eb00008e 	bl	d210 <delay_ms>
    cfd4:	eb000069 	bl	d180 <rpi_reboot>
    cfd8:	0000f594 	.word	0x0000f594

0000cfdc <program_end>:
    cfdc:	e59f0000 	ldr	r0, [pc]	; cfe4 <program_end+0x8>
    cfe0:	e12fff1e 	bx	lr
    cfe4:	0000f8b8 	.word	0x0000f8b8

0000cfe8 <_cstart>:
    cfe8:	e92d4030 	push	{r4, r5, lr}
    cfec:	e24dd00c 	sub	sp, sp, #12, 0
    cff0:	e59f3098 	ldr	r3, [pc, #152]	; d090 <_cstart+0xa8>
    cff4:	e59f2098 	ldr	r2, [pc, #152]	; d094 <_cstart+0xac>
    cff8:	e1530002 	cmp	r3, r2
    cffc:	33a02000 	movcc	r2, #0, 0
    d000:	34c32001 	strbcc	r2, [r3], #1
    d004:	3afffffa 	bcc	cff4 <_cstart+0xc>
    d008:	ebfffddb 	bl	c77c <uart_init>
    d00c:	e3a03001 	mov	r3, #1, 0
    d010:	ee0f3f1c 	mcr	15, 0, r3, cr15, cr12, {0}
    d014:	e3a02a01 	mov	r2, #4096	; 0x1000
    d018:	e3a01000 	mov	r1, #0, 0
    d01c:	e1a00001 	mov	r0, r1
    d020:	ebfffe8d 	bl	ca5c <memset>
    d024:	e3a04000 	mov	r4, #0, 0
    d028:	e1a05004 	mov	r5, r4
    d02c:	ea000005 	b	d048 <_cstart+0x60>
    d030:	e2855001 	add	r5, r5, #1, 0
    d034:	e5912000 	ldr	r2, [r1]
    d038:	e1a03005 	mov	r3, r5
    d03c:	e59f0054 	ldr	r0, [pc, #84]	; d098 <_cstart+0xb0>
    d040:	ebfffead 	bl	cafc <printk>
    d044:	e2844001 	add	r4, r4, #1, 0
    d048:	e3540b01 	cmp	r4, #1024	; 0x400
    d04c:	2a000004 	bcs	d064 <_cstart+0x7c>
    d050:	e1a01104 	lsl	r1, r4, #2
    d054:	e5913000 	ldr	r3, [r1]
    d058:	e3530000 	cmp	r3, #0, 0
    d05c:	0afffff8 	beq	d044 <_cstart+0x5c>
    d060:	eafffff2 	b	d030 <_cstart+0x48>
    d064:	e3550000 	cmp	r5, #0, 0
    d068:	1a000001 	bne	d074 <_cstart+0x8c>
    d06c:	ebffec6e 	bl	822c <notmain>
    d070:	ebffffd1 	bl	cfbc <clean_reboot>
    d074:	e58d5000 	str	r5, [sp]
    d078:	e3a0301b 	mov	r3, #27, 0
    d07c:	e59f2018 	ldr	r2, [pc, #24]	; d09c <_cstart+0xb4>
    d080:	e59f1018 	ldr	r1, [pc, #24]	; d0a0 <_cstart+0xb8>
    d084:	e59f0018 	ldr	r0, [pc, #24]	; d0a4 <_cstart+0xbc>
    d088:	ebfffe9b 	bl	cafc <printk>
    d08c:	ebffffca 	bl	cfbc <clean_reboot>
    d090:	0000f830 	.word	0x0000f830
    d094:	0000f8b8 	.word	0x0000f8b8
    d098:	0000f5a0 	.word	0x0000f5a0
    d09c:	0000f640 	.word	0x0000f640
    d0a0:	0000f5cc 	.word	0x0000f5cc
    d0a4:	0000f610 	.word	0x0000f610

0000d0a8 <int_vector>:
    d0a8:	e52de004 	push	{lr}		; (str lr, [sp, #-4]!)
    d0ac:	e24dd00c 	sub	sp, sp, #12, 0
    d0b0:	e58d0000 	str	r0, [sp]
    d0b4:	e3a03003 	mov	r3, #3, 0
    d0b8:	e59f200c 	ldr	r2, [pc, #12]	; d0cc <int_vector+0x24>
    d0bc:	e59f100c 	ldr	r1, [pc, #12]	; d0d0 <int_vector+0x28>
    d0c0:	e59f000c 	ldr	r0, [pc, #12]	; d0d4 <int_vector+0x2c>
    d0c4:	ebfffe8c 	bl	cafc <printk>
    d0c8:	ebffffbb 	bl	cfbc <clean_reboot>
    d0cc:	0000f6a0 	.word	0x0000f6a0
    d0d0:	0000f650 	.word	0x0000f650
    d0d4:	0000f674 	.word	0x0000f674

0000d0d8 <prefetch_abort_vector>:
    d0d8:	e52de004 	push	{lr}		; (str lr, [sp, #-4]!)
    d0dc:	e24dd00c 	sub	sp, sp, #12, 0
    d0e0:	e58d0000 	str	r0, [sp]
    d0e4:	e3a03003 	mov	r3, #3, 0
    d0e8:	e59f200c 	ldr	r2, [pc, #12]	; d0fc <prefetch_abort_vector+0x24>
    d0ec:	e59f100c 	ldr	r1, [pc, #12]	; d100 <prefetch_abort_vector+0x28>
    d0f0:	e59f000c 	ldr	r0, [pc, #12]	; d104 <prefetch_abort_vector+0x2c>
    d0f4:	ebfffe80 	bl	cafc <printk>
    d0f8:	ebffffaf 	bl	cfbc <clean_reboot>
    d0fc:	0000f704 	.word	0x0000f704
    d100:	0000f6ac 	.word	0x0000f6ac
    d104:	0000f6d4 	.word	0x0000f6d4

0000d108 <reset_vector>:
    d108:	e52de004 	push	{lr}		; (str lr, [sp, #-4]!)
    d10c:	e24dd00c 	sub	sp, sp, #12, 0
    d110:	e58d0000 	str	r0, [sp]
    d114:	e3a03003 	mov	r3, #3, 0
    d118:	e59f200c 	ldr	r2, [pc, #12]	; d12c <reset_vector+0x24>
    d11c:	e59f100c 	ldr	r1, [pc, #12]	; d130 <reset_vector+0x28>
    d120:	e59f000c 	ldr	r0, [pc, #12]	; d134 <reset_vector+0x2c>
    d124:	ebfffe74 	bl	cafc <printk>
    d128:	ebffffa3 	bl	cfbc <clean_reboot>
    d12c:	0000f774 	.word	0x0000f774
    d130:	0000f71c 	.word	0x0000f71c
    d134:	0000f740 	.word	0x0000f740

0000d138 <undefined_instruction_vector>:
    d138:	e52de004 	push	{lr}		; (str lr, [sp, #-4]!)
    d13c:	e24dd00c 	sub	sp, sp, #12, 0
    d140:	e58d0000 	str	r0, [sp]
    d144:	e3a03003 	mov	r3, #3, 0
    d148:	e59f200c 	ldr	r2, [pc, #12]	; d15c <undefined_instruction_vector+0x24>
    d14c:	e59f100c 	ldr	r1, [pc, #12]	; d160 <undefined_instruction_vector+0x28>
    d150:	e59f000c 	ldr	r0, [pc, #12]	; d164 <undefined_instruction_vector+0x2c>
    d154:	ebfffe68 	bl	cafc <printk>
    d158:	ebffff97 	bl	cfbc <clean_reboot>
    d15c:	0000f7f0 	.word	0x0000f7f0
    d160:	0000f784 	.word	0x0000f784
    d164:	0000f7b4 	.word	0x0000f7b4

0000d168 <dev_barrier>:
    d168:	ea000002 	b	d178 <dsb>

0000d16c <dmb>:
    d16c:	e3a00000 	mov	r0, #0, 0
    d170:	ee070fba 	mcr	15, 0, r0, cr7, cr10, {5}
    d174:	e12fff1e 	bx	lr

0000d178 <dsb>:
    d178:	ee070f9a 	mcr	15, 0, r0, cr7, cr10, {4}
    d17c:	e12fff1e 	bx	lr

0000d180 <rpi_reboot>:
    d180:	e92d4010 	push	{r4, lr}
    d184:	e3a0000a 	mov	r0, #10, 0
    d188:	eb000020 	bl	d210 <delay_ms>
    d18c:	e59f1014 	ldr	r1, [pc, #20]	; d1a8 <rpi_reboot+0x28>
    d190:	e59f0014 	ldr	r0, [pc, #20]	; d1ac <rpi_reboot+0x2c>
    d194:	ebffeba2 	bl	8024 <PUT32>
    d198:	e59f1010 	ldr	r1, [pc, #16]	; d1b0 <rpi_reboot+0x30>
    d19c:	e59f0010 	ldr	r0, [pc, #16]	; d1b4 <rpi_reboot+0x34>
    d1a0:	ebffeb9f 	bl	8024 <PUT32>
    d1a4:	eafffffe 	b	d1a4 <rpi_reboot+0x24>
    d1a8:	5a000001 	.word	0x5a000001
    d1ac:	20100024 	.word	0x20100024
    d1b0:	5a000020 	.word	0x5a000020
    d1b4:	2010001c 	.word	0x2010001c

0000d1b8 <rpi_wait>:
    d1b8:	e12fff1e 	bx	lr

0000d1bc <timer_get_usec_raw>:
    d1bc:	e92d4010 	push	{r4, lr}
    d1c0:	e59f0004 	ldr	r0, [pc, #4]	; d1cc <timer_get_usec_raw+0x10>
    d1c4:	ebffeb98 	bl	802c <GET32>
    d1c8:	e8bd8010 	pop	{r4, pc}
    d1cc:	20003004 	.word	0x20003004

0000d1d0 <timer_get_usec>:
    d1d0:	e92d4010 	push	{r4, lr}
    d1d4:	ebffffe3 	bl	d168 <dev_barrier>
    d1d8:	ebfffff7 	bl	d1bc <timer_get_usec_raw>
    d1dc:	e1a04000 	mov	r4, r0
    d1e0:	ebffffe0 	bl	d168 <dev_barrier>
    d1e4:	e1a00004 	mov	r0, r4
    d1e8:	e8bd8010 	pop	{r4, pc}

0000d1ec <delay_us>:
    d1ec:	e92d4070 	push	{r4, r5, r6, lr}
    d1f0:	e1a05000 	mov	r5, r0
    d1f4:	ebfffff5 	bl	d1d0 <timer_get_usec>
    d1f8:	e1a04000 	mov	r4, r0
    d1fc:	ebfffff3 	bl	d1d0 <timer_get_usec>
    d200:	e0400004 	sub	r0, r0, r4
    d204:	e1500005 	cmp	r0, r5
    d208:	3afffffb 	bcc	d1fc <delay_us+0x10>
    d20c:	e8bd8070 	pop	{r4, r5, r6, pc}

0000d210 <delay_ms>:
    d210:	e92d4010 	push	{r4, lr}
    d214:	e0603280 	rsb	r3, r0, r0, lsl #5
    d218:	e0800103 	add	r0, r0, r3, lsl #2
    d21c:	e1a00180 	lsl	r0, r0, #3
    d220:	ebfffff1 	bl	d1ec <delay_us>
    d224:	e8bd8010 	pop	{r4, pc}

0000d228 <delay_sec>:
    d228:	e92d4010 	push	{r4, lr}
    d22c:	e0603280 	rsb	r3, r0, r0, lsl #5
    d230:	e0800103 	add	r0, r0, r3, lsl #2
    d234:	e1a00180 	lsl	r0, r0, #3
    d238:	ebfffff4 	bl	d210 <delay_ms>
    d23c:	e8bd8010 	pop	{r4, pc}

0000d240 <gpio_set_on>:
    d240:	e350002f 	cmp	r0, #47, 0	; 0x2f
    d244:	1350001f 	cmpne	r0, #31, 0
    d248:	812fff1e 	bxhi	lr
    d24c:	e92d4010 	push	{r4, lr}
    d250:	e200201f 	and	r2, r0, #31, 0
    d254:	e59f3014 	ldr	r3, [pc, #20]	; d270 <gpio_set_on+0x30>
    d258:	e08302a0 	add	r0, r3, r0, lsr #5
    d25c:	e3a01001 	mov	r1, #1, 0
    d260:	e1a01211 	lsl	r1, r1, r2
    d264:	e1a00100 	lsl	r0, r0, #2
    d268:	ebffeb6d 	bl	8024 <PUT32>
    d26c:	e8bd8010 	pop	{r4, pc}
    d270:	08080007 	.word	0x08080007

0000d274 <gpio_set_off>:
    d274:	e350002f 	cmp	r0, #47, 0	; 0x2f
    d278:	1350001f 	cmpne	r0, #31, 0
    d27c:	812fff1e 	bxhi	lr
    d280:	e92d4010 	push	{r4, lr}
    d284:	e200201f 	and	r2, r0, #31, 0
    d288:	e59f3014 	ldr	r3, [pc, #20]	; d2a4 <gpio_set_off+0x30>
    d28c:	e08302a0 	add	r0, r3, r0, lsr #5
    d290:	e3a01001 	mov	r1, #1, 0
    d294:	e1a01211 	lsl	r1, r1, r2
    d298:	e1a00100 	lsl	r0, r0, #2
    d29c:	ebffeb60 	bl	8024 <PUT32>
    d2a0:	e8bd8010 	pop	{r4, pc}
    d2a4:	0808000a 	.word	0x0808000a

0000d2a8 <gpio_write>:
    d2a8:	e350002f 	cmp	r0, #47, 0	; 0x2f
    d2ac:	1350001f 	cmpne	r0, #31, 0
    d2b0:	812fff1e 	bxhi	lr
    d2b4:	e92d4010 	push	{r4, lr}
    d2b8:	e3510000 	cmp	r1, #0, 0
    d2bc:	0a000001 	beq	d2c8 <gpio_write+0x20>
    d2c0:	ebffffde 	bl	d240 <gpio_set_on>
    d2c4:	e8bd8010 	pop	{r4, pc}
    d2c8:	ebffffe9 	bl	d274 <gpio_set_off>
    d2cc:	e8bd8010 	pop	{r4, pc}

0000d2d0 <gpio_read>:
    d2d0:	e350001f 	cmp	r0, #31, 0
    d2d4:	8a000009 	bhi	d300 <gpio_read+0x30>
    d2d8:	e92d4010 	push	{r4, lr}
    d2dc:	e200401f 	and	r4, r0, #31, 0
    d2e0:	e59f3020 	ldr	r3, [pc, #32]	; d308 <gpio_read+0x38>
    d2e4:	e08302a0 	add	r0, r3, r0, lsr #5
    d2e8:	e1a00100 	lsl	r0, r0, #2
    d2ec:	ebffeb4e 	bl	802c <GET32>
    d2f0:	e3a03001 	mov	r3, #1, 0
    d2f4:	e0000413 	and	r0, r0, r3, lsl r4
    d2f8:	e1a00430 	lsr	r0, r0, r4
    d2fc:	e8bd8010 	pop	{r4, pc}
    d300:	e3e00000 	mvn	r0, #0, 0
    d304:	e12fff1e 	bx	lr
    d308:	0808000d 	.word	0x0808000d

0000d30c <gpio_set_function>:
    d30c:	e350002f 	cmp	r0, #47, 0	; 0x2f
    d310:	1350001f 	cmpne	r0, #31, 0
    d314:	812fff1e 	bxhi	lr
    d318:	e92d41f0 	push	{r4, r5, r6, r7, r8, lr}
    d31c:	e1a04000 	mov	r4, r0
    d320:	e1a05001 	mov	r5, r1
    d324:	e3510007 	cmp	r1, #7, 0
    d328:	88bd81f0 	pophi	{r4, r5, r6, r7, r8, pc}
    d32c:	e59f603c 	ldr	r6, [pc, #60]	; d370 <gpio_set_function+0x64>
    d330:	e0863096 	umull	r3, r6, r6, r0
    d334:	e1a061a6 	lsr	r6, r6, #3
    d338:	e2867302 	add	r7, r6, #134217728	; 0x8000000
    d33c:	e2877702 	add	r7, r7, #524288	; 0x80000
    d340:	e1a07107 	lsl	r7, r7, #2
    d344:	e1a00007 	mov	r0, r7
    d348:	ebffeb37 	bl	802c <GET32>
    d34c:	e0866106 	add	r6, r6, r6, lsl #2
    d350:	e0444086 	sub	r4, r4, r6, lsl #1
    d354:	e0844084 	add	r4, r4, r4, lsl #1
    d358:	e3a01007 	mov	r1, #7, 0
    d35c:	e1c01411 	bic	r1, r0, r1, lsl r4
    d360:	e1811415 	orr	r1, r1, r5, lsl r4
    d364:	e1a00007 	mov	r0, r7
    d368:	ebffeb2d 	bl	8024 <PUT32>
    d36c:	e8bd81f0 	pop	{r4, r5, r6, r7, r8, pc}
    d370:	cccccccd 	.word	0xcccccccd

0000d374 <gpio_set_output>:
    d374:	e92d4010 	push	{r4, lr}
    d378:	e3a01001 	mov	r1, #1, 0
    d37c:	ebffffe2 	bl	d30c <gpio_set_function>
    d380:	e8bd8010 	pop	{r4, pc}

0000d384 <gpio_set_input>:
    d384:	e92d4010 	push	{r4, lr}
    d388:	e3a01000 	mov	r1, #0, 0
    d38c:	ebffffde 	bl	d30c <gpio_set_function>
    d390:	e8bd8010 	pop	{r4, pc}

0000d394 <putk>:
    d394:	e92d4010 	push	{r4, lr}
    d398:	e1a04000 	mov	r4, r0
    d39c:	e5d40000 	ldrb	r0, [r4]
    d3a0:	e3500000 	cmp	r0, #0, 0
    d3a4:	0a000004 	beq	d3bc <putk+0x28>
    d3a8:	e59f3014 	ldr	r3, [pc, #20]	; d3c4 <putk+0x30>
    d3ac:	e5933000 	ldr	r3, [r3]
    d3b0:	e12fff33 	blx	r3
    d3b4:	e2844001 	add	r4, r4, #1, 0
    d3b8:	eafffff7 	b	d39c <putk+0x8>
    d3bc:	e3a00001 	mov	r0, #1, 0
    d3c0:	e8bd8010 	pop	{r4, pc}
    d3c4:	0000f82c 	.word	0x0000f82c

0000d3c8 <__udivsi3>:
    d3c8:	e2512001 	subs	r2, r1, #1, 0
    d3cc:	012fff1e 	bxeq	lr
    d3d0:	3a000036 	bcc	d4b0 <__udivsi3+0xe8>
    d3d4:	e1500001 	cmp	r0, r1
    d3d8:	9a000022 	bls	d468 <__udivsi3+0xa0>
    d3dc:	e1110002 	tst	r1, r2
    d3e0:	0a000023 	beq	d474 <__udivsi3+0xac>
    d3e4:	e311020e 	tst	r1, #-536870912	; 0xe0000000
    d3e8:	01a01181 	lsleq	r1, r1, #3
    d3ec:	03a03008 	moveq	r3, #8, 0
    d3f0:	13a03001 	movne	r3, #1, 0
    d3f4:	e3510201 	cmp	r1, #268435456	; 0x10000000
    d3f8:	31510000 	cmpcc	r1, r0
    d3fc:	31a01201 	lslcc	r1, r1, #4
    d400:	31a03203 	lslcc	r3, r3, #4
    d404:	3afffffa 	bcc	d3f4 <__udivsi3+0x2c>
    d408:	e3510102 	cmp	r1, #-2147483648	; 0x80000000
    d40c:	31510000 	cmpcc	r1, r0
    d410:	31a01081 	lslcc	r1, r1, #1
    d414:	31a03083 	lslcc	r3, r3, #1
    d418:	3afffffa 	bcc	d408 <__udivsi3+0x40>
    d41c:	e3a02000 	mov	r2, #0, 0
    d420:	e1500001 	cmp	r0, r1
    d424:	20400001 	subcs	r0, r0, r1
    d428:	21822003 	orrcs	r2, r2, r3
    d42c:	e15000a1 	cmp	r0, r1, lsr #1
    d430:	204000a1 	subcs	r0, r0, r1, lsr #1
    d434:	218220a3 	orrcs	r2, r2, r3, lsr #1
    d438:	e1500121 	cmp	r0, r1, lsr #2
    d43c:	20400121 	subcs	r0, r0, r1, lsr #2
    d440:	21822123 	orrcs	r2, r2, r3, lsr #2
    d444:	e15001a1 	cmp	r0, r1, lsr #3
    d448:	204001a1 	subcs	r0, r0, r1, lsr #3
    d44c:	218221a3 	orrcs	r2, r2, r3, lsr #3
    d450:	e3500000 	cmp	r0, #0, 0
    d454:	11b03223 	lsrsne	r3, r3, #4
    d458:	11a01221 	lsrne	r1, r1, #4
    d45c:	1affffef 	bne	d420 <__udivsi3+0x58>
    d460:	e1a00002 	mov	r0, r2
    d464:	e12fff1e 	bx	lr
    d468:	03a00001 	moveq	r0, #1, 0
    d46c:	13a00000 	movne	r0, #0, 0
    d470:	e12fff1e 	bx	lr
    d474:	e3510801 	cmp	r1, #65536	; 0x10000
    d478:	21a01821 	lsrcs	r1, r1, #16
    d47c:	23a02010 	movcs	r2, #16, 0
    d480:	33a02000 	movcc	r2, #0, 0
    d484:	e3510c01 	cmp	r1, #256	; 0x100
    d488:	21a01421 	lsrcs	r1, r1, #8
    d48c:	22822008 	addcs	r2, r2, #8, 0
    d490:	e3510010 	cmp	r1, #16, 0
    d494:	21a01221 	lsrcs	r1, r1, #4
    d498:	22822004 	addcs	r2, r2, #4, 0
    d49c:	e3510004 	cmp	r1, #4, 0
    d4a0:	82822003 	addhi	r2, r2, #3, 0
    d4a4:	908220a1 	addls	r2, r2, r1, lsr #1
    d4a8:	e1a00230 	lsr	r0, r0, r2
    d4ac:	e12fff1e 	bx	lr
    d4b0:	e3500000 	cmp	r0, #0, 0
    d4b4:	13e00000 	mvnne	r0, #0, 0
    d4b8:	ea000007 	b	d4dc <__aeabi_idiv0>

0000d4bc <__aeabi_uidivmod>:
    d4bc:	e3510000 	cmp	r1, #0, 0
    d4c0:	0afffffa 	beq	d4b0 <__udivsi3+0xe8>
    d4c4:	e92d4003 	push	{r0, r1, lr}
    d4c8:	ebffffbe 	bl	d3c8 <__udivsi3>
    d4cc:	e8bd4006 	pop	{r1, r2, lr}
    d4d0:	e0030092 	mul	r3, r2, r0
    d4d4:	e0411003 	sub	r1, r1, r3
    d4d8:	e12fff1e 	bx	lr

0000d4dc <__aeabi_idiv0>:
    d4dc:	e12fff1e 	bx	lr
