
objs/l1/l2/l3//tests/6-matmul-dcache.elf:     file format elf32-littlearm


Disassembly of section .text:

00008000 <__code_start__>:
    8000:	e3a00013 	mov	r0, #19, 0
    8004:	e3800080 	orr	r0, r0, #128, 0	; 0x80
    8008:	e129f000 	msr	CPSR_fc, r0
    800c:	e3a01000 	mov	r1, #0, 0
    8010:	ee071f95 	mcr	15, 0, r1, cr7, cr5, {4}
    8014:	e3a0d302 	mov	sp, #134217728	; 0x8000000
    8018:	e3a0b000 	mov	fp, #0, 0
    801c:	eb000a70 	bl	a9e4 <_cstart>
    8020:	eb000aa5 	bl	aabc <rpi_reboot>

00008024 <PUT32>:
    8024:	e5801000 	str	r1, [r0]
    8028:	e12fff1e 	bx	lr

0000802c <GET32>:
    802c:	e5900000 	ldr	r0, [r0]
    8030:	e12fff1e 	bx	lr

00008034 <BRANCHTO>:
    8034:	e12fff10 	bx	r0

00008038 <matmul>:
    8038:	e92d4070 	push	{r4, r5, r6, lr}
    803c:	e1a05000 	mov	r5, r0
    8040:	e1a04001 	mov	r4, r1
    8044:	e1a06002 	mov	r6, r2
    8048:	e3a0e000 	mov	lr, #0, 0
    804c:	ea000010 	b	8094 <matmul+0x5c>
    8050:	e086348e 	add	r3, r6, lr, lsl #9
    8054:	e783210c 	str	r2, [r3, ip, lsl #2]
    8058:	e28cc001 	add	ip, ip, #1, 0
    805c:	e35c007f 	cmp	ip, #127, 0	; 0x7f
    8060:	ca00000a 	bgt	8090 <matmul+0x58>
    8064:	e3a03000 	mov	r3, #0, 0
    8068:	e1a02003 	mov	r2, r3
    806c:	e353007f 	cmp	r3, #127, 0	; 0x7f
    8070:	cafffff6 	bgt	8050 <matmul+0x18>
    8074:	e085148e 	add	r1, r5, lr, lsl #9
    8078:	e7911103 	ldr	r1, [r1, r3, lsl #2]
    807c:	e0840483 	add	r0, r4, r3, lsl #9
    8080:	e790010c 	ldr	r0, [r0, ip, lsl #2]
    8084:	e0222190 	mla	r2, r0, r1, r2
    8088:	e2833001 	add	r3, r3, #1, 0
    808c:	eafffff6 	b	806c <matmul+0x34>
    8090:	e28ee001 	add	lr, lr, #1, 0
    8094:	e35e007f 	cmp	lr, #127, 0	; 0x7f
    8098:	c8bd8070 	popgt	{r4, r5, r6, pc}
    809c:	e3a0c000 	mov	ip, #0, 0
    80a0:	eaffffed 	b	805c <matmul+0x24>

000080a4 <init>:
    80a4:	e92d41f0 	push	{r4, r5, r6, r7, r8, lr}
    80a8:	e1a07000 	mov	r7, r0
    80ac:	e1a06001 	mov	r6, r1
    80b0:	e3a05000 	mov	r5, #0, 0
    80b4:	ea000000 	b	80bc <init+0x18>
    80b8:	e2855001 	add	r5, r5, #1, 0
    80bc:	e355007f 	cmp	r5, #127, 0	; 0x7f
    80c0:	c8bd81f0 	popgt	{r4, r5, r6, r7, r8, pc}
    80c4:	e3a04000 	mov	r4, #0, 0
    80c8:	e354007f 	cmp	r4, #127, 0	; 0x7f
    80cc:	cafffff9 	bgt	80b8 <init+0x14>
    80d0:	eb000a8c 	bl	ab08 <timer_get_usec>
    80d4:	e1a08485 	lsl	r8, r5, #9
    80d8:	e0872485 	add	r2, r7, r5, lsl #9
    80dc:	e1a030a0 	lsr	r3, r0, #1
    80e0:	e59f103c 	ldr	r1, [pc, #60]	; 8124 <init+0x80>
    80e4:	e0831391 	umull	r1, r3, r1, r3
    80e8:	e1a03123 	lsr	r3, r3, #2
    80ec:	e0633183 	rsb	r3, r3, r3, lsl #3
    80f0:	e0403083 	sub	r3, r0, r3, lsl #1
    80f4:	e7823104 	str	r3, [r2, r4, lsl #2]
    80f8:	eb000a82 	bl	ab08 <timer_get_usec>
    80fc:	e2600000 	rsb	r0, r0, #0, 0
    8100:	e0868008 	add	r8, r6, r8
    8104:	e59f301c 	ldr	r3, [pc, #28]	; 8128 <init+0x84>
    8108:	e0832093 	umull	r2, r3, r3, r0
    810c:	e1a031a3 	lsr	r3, r3, #3
    8110:	e0833083 	add	r3, r3, r3, lsl #1
    8114:	e0403103 	sub	r3, r0, r3, lsl #2
    8118:	e7883104 	str	r3, [r8, r4, lsl #2]
    811c:	e2844001 	add	r4, r4, #1, 0
    8120:	eaffffe8 	b	80c8 <init+0x24>
    8124:	92492493 	.word	0x92492493
    8128:	aaaaaaab 	.word	0xaaaaaaab

0000812c <notmain>:
    812c:	e92d40f0 	push	{r4, r5, r6, r7, lr}
    8130:	e24ddf6f 	sub	sp, sp, #444	; 0x1bc
    8134:	e3a03000 	mov	r3, #0, 0
    8138:	e35300ff 	cmp	r3, #255, 0	; 0xff
    813c:	8a000005 	bhi	8158 <notmain+0x2c>
    8140:	e1a02103 	lsl	r2, r3, #2
    8144:	e282260a 	add	r2, r2, #10485760	; 0xa00000
    8148:	e59f1910 	ldr	r1, [pc, #2320]	; 8a60 <notmain+0x934>
    814c:	e5821080 	str	r1, [r2, #128]	; 0x80
    8150:	e2833001 	add	r3, r3, #1, 0
    8154:	eafffff7 	b	8138 <notmain+0xc>
    8158:	e1a03103 	lsl	r3, r3, #2
    815c:	e283360a 	add	r3, r3, #10485760	; 0xa00000
    8160:	e59f28fc 	ldr	r2, [pc, #2300]	; 8a64 <notmain+0x938>
    8164:	e5832080 	str	r2, [r3, #128]	; 0x80
    8168:	eb000a4e 	bl	aaa8 <dmb>
    816c:	e3a00005 	mov	r0, #5, 0
    8170:	e59f38f0 	ldr	r3, [pc, #2288]	; 8a68 <notmain+0x93c>
    8174:	e12fff33 	blx	r3
    8178:	e3500005 	cmp	r0, #5, 0
    817c:	1a000141 	bne	8688 <notmain+0x55c>
    8180:	e3a00002 	mov	r0, #2, 0
    8184:	e59f38dc 	ldr	r3, [pc, #2268]	; 8a68 <notmain+0x93c>
    8188:	e12fff33 	blx	r3
    818c:	e3500002 	cmp	r0, #2, 0
    8190:	1a000144 	bne	86a8 <notmain+0x57c>
    8194:	e3a01601 	mov	r1, #1048576	; 0x100000
    8198:	e1a00001 	mov	r0, r1
    819c:	eb0007b0 	bl	a064 <kmalloc_init_set_start>
    81a0:	e3a02088 	mov	r2, #136, 0	; 0x88
    81a4:	e3a01000 	mov	r1, #0, 0
    81a8:	e28d0024 	add	r0, sp, #36, 0	; 0x24
    81ac:	eb0008d0 	bl	a4f4 <memset>
    81b0:	e3a03202 	mov	r3, #536870912	; 0x20000000
    81b4:	e58d31a8 	str	r3, [sp, #424]	; 0x1a8
    81b8:	e3a03601 	mov	r3, #1048576	; 0x100000
    81bc:	e58d31ac 	str	r3, [sp, #428]	; 0x1ac
    81c0:	e3a03000 	mov	r3, #0, 0
    81c4:	e5cd31b0 	strb	r3, [sp, #432]	; 0x1b0
    81c8:	e3a03001 	mov	r3, #1, 0
    81cc:	e58d31b4 	str	r3, [sp, #436]	; 0x1b4
    81d0:	e28dc014 	add	ip, sp, #20, 0
    81d4:	e28d3f6e 	add	r3, sp, #440	; 0x1b8
    81d8:	e913000f 	ldmdb	r3, {r0, r1, r2, r3}
    81dc:	e88c000f 	stm	ip, {r0, r1, r2, r3}
    81e0:	e59d2020 	ldr	r2, [sp, #32]
    81e4:	e352000f 	cmp	r2, #15, 0
    81e8:	8a000136 	bhi	86c8 <notmain+0x59c>
    81ec:	e3a05001 	mov	r5, #1, 0
    81f0:	e59d3028 	ldr	r3, [sp, #40]	; 0x28
    81f4:	e1833215 	orr	r3, r3, r5, lsl r2
    81f8:	e58d3028 	str	r3, [sp, #40]	; 0x28
    81fc:	e1a0e005 	mov	lr, r5
    8200:	e58d5024 	str	r5, [sp, #36]	; 0x24
    8204:	e28d402c 	add	r4, sp, #44, 0	; 0x2c
    8208:	e28dc014 	add	ip, sp, #20, 0
    820c:	e89c000f 	ldm	ip, {r0, r1, r2, r3}
    8210:	e884000f 	stm	r4, {r0, r1, r2, r3}
    8214:	e59f3850 	ldr	r3, [pc, #2128]	; 8a6c <notmain+0x940>
    8218:	e58d3198 	str	r3, [sp, #408]	; 0x198
    821c:	e3a03601 	mov	r3, #1048576	; 0x100000
    8220:	e58d319c 	str	r3, [sp, #412]	; 0x19c
    8224:	e3a03000 	mov	r3, #0, 0
    8228:	e5cd31a0 	strb	r3, [sp, #416]	; 0x1a0
    822c:	e58d51a4 	str	r5, [sp, #420]	; 0x1a4
    8230:	e28d3f66 	add	r3, sp, #408	; 0x198
    8234:	e893000f 	ldm	r3, {r0, r1, r2, r3}
    8238:	e88c000f 	stm	ip, {r0, r1, r2, r3}
    823c:	e59d2020 	ldr	r2, [sp, #32]
    8240:	e352000f 	cmp	r2, #15, 0
    8244:	8a000127 	bhi	86e8 <notmain+0x5bc>
    8248:	e3a05001 	mov	r5, #1, 0
    824c:	e59d3028 	ldr	r3, [sp, #40]	; 0x28
    8250:	e1833215 	orr	r3, r3, r5, lsl r2
    8254:	e58d3028 	str	r3, [sp, #40]	; 0x28
    8258:	e08ec005 	add	ip, lr, r5
    825c:	e58dc024 	str	ip, [sp, #36]	; 0x24
    8260:	e28d3f6e 	add	r3, sp, #440	; 0x1b8
    8264:	e083e20e 	add	lr, r3, lr, lsl #4
    8268:	e24eef63 	sub	lr, lr, #396	; 0x18c
    826c:	e28d4014 	add	r4, sp, #20, 0
    8270:	e894000f 	ldm	r4, {r0, r1, r2, r3}
    8274:	e88e000f 	stm	lr, {r0, r1, r2, r3}
    8278:	e59f37f0 	ldr	r3, [pc, #2032]	; 8a70 <notmain+0x944>
    827c:	e58d3188 	str	r3, [sp, #392]	; 0x188
    8280:	e3a03601 	mov	r3, #1048576	; 0x100000
    8284:	e58d318c 	str	r3, [sp, #396]	; 0x18c
    8288:	e3a03000 	mov	r3, #0, 0
    828c:	e5cd3190 	strb	r3, [sp, #400]	; 0x190
    8290:	e58d5194 	str	r5, [sp, #404]	; 0x194
    8294:	e28d3f62 	add	r3, sp, #392	; 0x188
    8298:	e893000f 	ldm	r3, {r0, r1, r2, r3}
    829c:	e884000f 	stm	r4, {r0, r1, r2, r3}
    82a0:	e59d2020 	ldr	r2, [sp, #32]
    82a4:	e352000f 	cmp	r2, #15, 0
    82a8:	8a000116 	bhi	8708 <notmain+0x5dc>
    82ac:	e3a01001 	mov	r1, #1, 0
    82b0:	e59d3028 	ldr	r3, [sp, #40]	; 0x28
    82b4:	e1833211 	orr	r3, r3, r1, lsl r2
    82b8:	e58d3028 	str	r3, [sp, #40]	; 0x28
    82bc:	e08c3001 	add	r3, ip, r1
    82c0:	e58d3024 	str	r3, [sp, #36]	; 0x24
    82c4:	e28d3f6e 	add	r3, sp, #440	; 0x1b8
    82c8:	e083c20c 	add	ip, r3, ip, lsl #4
    82cc:	e24ccf63 	sub	ip, ip, #396	; 0x18c
    82d0:	e28d3014 	add	r3, sp, #20, 0
    82d4:	e893000f 	ldm	r3, {r0, r1, r2, r3}
    82d8:	e88c000f 	stm	ip, {r0, r1, r2, r3}
    82dc:	e59f3790 	ldr	r3, [pc, #1936]	; 8a74 <notmain+0x948>
    82e0:	e3530601 	cmp	r3, #1048576	; 0x100000
    82e4:	8a00010f 	bhi	8728 <notmain+0x5fc>
    82e8:	e3a03000 	mov	r3, #0, 0
    82ec:	e58d3178 	str	r3, [sp, #376]	; 0x178
    82f0:	e3a03601 	mov	r3, #1048576	; 0x100000
    82f4:	e58d317c 	str	r3, [sp, #380]	; 0x17c
    82f8:	e3a03001 	mov	r3, #1, 0
    82fc:	e5cd3180 	strb	r3, [sp, #384]	; 0x180
    8300:	e58d3184 	str	r3, [sp, #388]	; 0x184
    8304:	e28dc014 	add	ip, sp, #20, 0
    8308:	e28d3f5e 	add	r3, sp, #376	; 0x178
    830c:	e893000f 	ldm	r3, {r0, r1, r2, r3}
    8310:	e88c000f 	stm	ip, {r0, r1, r2, r3}
    8314:	e59d3024 	ldr	r3, [sp, #36]	; 0x24
    8318:	e3530007 	cmp	r3, #7, 0
    831c:	8a000109 	bhi	8748 <notmain+0x61c>
    8320:	e59d1020 	ldr	r1, [sp, #32]
    8324:	e351000f 	cmp	r1, #15, 0
    8328:	8a00010e 	bhi	8768 <notmain+0x63c>
    832c:	e3a00001 	mov	r0, #1, 0
    8330:	e59d2028 	ldr	r2, [sp, #40]	; 0x28
    8334:	e1822110 	orr	r2, r2, r0, lsl r1
    8338:	e58d2028 	str	r2, [sp, #40]	; 0x28
    833c:	e0832000 	add	r2, r3, r0
    8340:	e58d2024 	str	r2, [sp, #36]	; 0x24
    8344:	e28d2f6e 	add	r2, sp, #440	; 0x1b8
    8348:	e0823203 	add	r3, r2, r3, lsl #4
    834c:	e243cf63 	sub	ip, r3, #396	; 0x18c
    8350:	e28d3014 	add	r3, sp, #20, 0
    8354:	e893000f 	ldm	r3, {r0, r1, r2, r3}
    8358:	e88c000f 	stm	ip, {r0, r1, r2, r3}
    835c:	eb000738 	bl	a044 <kmalloc_heap_start>
    8360:	e1a04000 	mov	r4, r0
    8364:	eb000732 	bl	a034 <kmalloc_heap_end>
    8368:	e0403004 	sub	r3, r0, r4
    836c:	e3540601 	cmp	r4, #1048576	; 0x100000
    8370:	1a000104 	bne	8788 <notmain+0x65c>
    8374:	e3530601 	cmp	r3, #1048576	; 0x100000
    8378:	1a000109 	bne	87a4 <notmain+0x678>
    837c:	e3a03601 	mov	r3, #1048576	; 0x100000
    8380:	e58d3168 	str	r3, [sp, #360]	; 0x168
    8384:	e58d316c 	str	r3, [sp, #364]	; 0x16c
    8388:	e3a03001 	mov	r3, #1, 0
    838c:	e5cd3170 	strb	r3, [sp, #368]	; 0x170
    8390:	e58d3174 	str	r3, [sp, #372]	; 0x174
    8394:	e28dc014 	add	ip, sp, #20, 0
    8398:	e28d3f5a 	add	r3, sp, #360	; 0x168
    839c:	e893000f 	ldm	r3, {r0, r1, r2, r3}
    83a0:	e88c000f 	stm	ip, {r0, r1, r2, r3}
    83a4:	e59d3024 	ldr	r3, [sp, #36]	; 0x24
    83a8:	e3530007 	cmp	r3, #7, 0
    83ac:	8a000103 	bhi	87c0 <notmain+0x694>
    83b0:	e59d1020 	ldr	r1, [sp, #32]
    83b4:	e351000f 	cmp	r1, #15, 0
    83b8:	8a000108 	bhi	87e0 <notmain+0x6b4>
    83bc:	e3a05001 	mov	r5, #1, 0
    83c0:	e59d2028 	ldr	r2, [sp, #40]	; 0x28
    83c4:	e1822115 	orr	r2, r2, r5, lsl r1
    83c8:	e58d2028 	str	r2, [sp, #40]	; 0x28
    83cc:	e083e005 	add	lr, r3, r5
    83d0:	e58de024 	str	lr, [sp, #36]	; 0x24
    83d4:	e28d2f6e 	add	r2, sp, #440	; 0x1b8
    83d8:	e0823203 	add	r3, r2, r3, lsl #4
    83dc:	e243cf63 	sub	ip, r3, #396	; 0x18c
    83e0:	e28d4014 	add	r4, sp, #20, 0
    83e4:	e894000f 	ldm	r4, {r0, r1, r2, r3}
    83e8:	e88c000f 	stm	ip, {r0, r1, r2, r3}
    83ec:	e3a0368f 	mov	r3, #149946368	; 0x8f00000
    83f0:	e58d3158 	str	r3, [sp, #344]	; 0x158
    83f4:	e3a03601 	mov	r3, #1048576	; 0x100000
    83f8:	e58d315c 	str	r3, [sp, #348]	; 0x15c
    83fc:	e5cd5160 	strb	r5, [sp, #352]	; 0x160
    8400:	e58d5164 	str	r5, [sp, #356]	; 0x164
    8404:	e28d3f56 	add	r3, sp, #344	; 0x158
    8408:	e893000f 	ldm	r3, {r0, r1, r2, r3}
    840c:	e884000f 	stm	r4, {r0, r1, r2, r3}
    8410:	e35e0007 	cmp	lr, #7, 0
    8414:	8a0000f9 	bhi	8800 <notmain+0x6d4>
    8418:	e59d2020 	ldr	r2, [sp, #32]
    841c:	e352000f 	cmp	r2, #15, 0
    8420:	8a0000fe 	bhi	8820 <notmain+0x6f4>
    8424:	e3a05001 	mov	r5, #1, 0
    8428:	e59d3028 	ldr	r3, [sp, #40]	; 0x28
    842c:	e1833215 	orr	r3, r3, r5, lsl r2
    8430:	e58d3028 	str	r3, [sp, #40]	; 0x28
    8434:	e08ec005 	add	ip, lr, r5
    8438:	e58dc024 	str	ip, [sp, #36]	; 0x24
    843c:	e28d3f6e 	add	r3, sp, #440	; 0x1b8
    8440:	e083e20e 	add	lr, r3, lr, lsl #4
    8444:	e24eef63 	sub	lr, lr, #396	; 0x18c
    8448:	e28d4014 	add	r4, sp, #20, 0
    844c:	e894000f 	ldm	r4, {r0, r1, r2, r3}
    8450:	e88e000f 	stm	lr, {r0, r1, r2, r3}
    8454:	e3a0367f 	mov	r3, #133169152	; 0x7f00000
    8458:	e58d3148 	str	r3, [sp, #328]	; 0x148
    845c:	e3a03601 	mov	r3, #1048576	; 0x100000
    8460:	e58d314c 	str	r3, [sp, #332]	; 0x14c
    8464:	e5cd5150 	strb	r5, [sp, #336]	; 0x150
    8468:	e58d5154 	str	r5, [sp, #340]	; 0x154
    846c:	e28d3f52 	add	r3, sp, #328	; 0x148
    8470:	e893000f 	ldm	r3, {r0, r1, r2, r3}
    8474:	e884000f 	stm	r4, {r0, r1, r2, r3}
    8478:	e35c0007 	cmp	ip, #7, 0
    847c:	8a0000ef 	bhi	8840 <notmain+0x714>
    8480:	e59d2020 	ldr	r2, [sp, #32]
    8484:	e352000f 	cmp	r2, #15, 0
    8488:	8a0000f4 	bhi	8860 <notmain+0x734>
    848c:	e3a01001 	mov	r1, #1, 0
    8490:	e59d3028 	ldr	r3, [sp, #40]	; 0x28
    8494:	e1833211 	orr	r3, r3, r1, lsl r2
    8498:	e58d3028 	str	r3, [sp, #40]	; 0x28
    849c:	e08c3001 	add	r3, ip, r1
    84a0:	e58d3024 	str	r3, [sp, #36]	; 0x24
    84a4:	e28d3f6e 	add	r3, sp, #440	; 0x1b8
    84a8:	e083c20c 	add	ip, r3, ip, lsl #4
    84ac:	e24ccf63 	sub	ip, ip, #396	; 0x18c
    84b0:	e28d3014 	add	r3, sp, #20, 0
    84b4:	e893000f 	ldm	r3, {r0, r1, r2, r3}
    84b8:	e88c000f 	stm	ip, {r0, r1, r2, r3}
    84bc:	e3a02088 	mov	r2, #136, 0	; 0x88
    84c0:	e28d1024 	add	r1, sp, #36, 0	; 0x24
    84c4:	e28d00c0 	add	r0, sp, #192, 0	; 0xc0
    84c8:	eb0007de 	bl	a448 <memcpy>
    84cc:	e3a01000 	mov	r1, #0, 0
    84d0:	e28d00c0 	add	r0, sp, #192, 0	; 0xc0
    84d4:	eb00033e 	bl	91d4 <vm_map_kernel>
    84d8:	e1a05000 	mov	r5, r0
    84dc:	eb000632 	bl	9dac <mmu_is_enabled>
    84e0:	e2504000 	subs	r4, r0, #0, 0
    84e4:	1a0000e5 	bne	8880 <notmain+0x754>
    84e8:	e3a0c001 	mov	ip, #1, 0
    84ec:	e3a03000 	mov	r3, #0, 0
    84f0:	e58d30b0 	str	r3, [sp, #176]	; 0xb0
    84f4:	e58dc0b4 	str	ip, [sp, #180]	; 0xb4
    84f8:	e3a03003 	mov	r3, #3, 0
    84fc:	e58d30b8 	str	r3, [sp, #184]	; 0xb8
    8500:	e5cdc0bc 	strb	ip, [sp, #188]	; 0xbc
    8504:	e3a03007 	mov	r3, #7, 0
    8508:	e5cd30bd 	strb	r3, [sp, #189]	; 0xbd
    850c:	e28d30b0 	add	r3, sp, #176, 0	; 0xb0
    8510:	e893000f 	ldm	r3, {r0, r1, r2, r3}
    8514:	e88d000f 	stm	sp, {r0, r1, r2, r3}
    8518:	e1a0300c 	mov	r3, ip
    851c:	e3a0260a 	mov	r2, #10485760	; 0xa00000
    8520:	e1a01002 	mov	r1, r2
    8524:	e1a00005 	mov	r0, r5
    8528:	eb000296 	bl	8f88 <vm_map_sec>
    852c:	eb000239 	bl	8e18 <vm_mmu_enable>
    8530:	eb00061d 	bl	9dac <mmu_is_enabled>
    8534:	e3500000 	cmp	r0, #0, 0
    8538:	0a0000d8 	beq	88a0 <notmain+0x774>
    853c:	ee1f7f3c 	mrc	15, 0, r7, cr15, cr12, {1}
    8540:	e59f6530 	ldr	r6, [pc, #1328]	; 8a78 <notmain+0x94c>
    8544:	e59f5530 	ldr	r5, [pc, #1328]	; 8a7c <notmain+0x950>
    8548:	e1a01006 	mov	r1, r6
    854c:	e1a00005 	mov	r0, r5
    8550:	ebfffed3 	bl	80a4 <init>
    8554:	e59f2524 	ldr	r2, [pc, #1316]	; 8a80 <notmain+0x954>
    8558:	e1a01006 	mov	r1, r6
    855c:	e1a00005 	mov	r0, r5
    8560:	ebfffeb4 	bl	8038 <matmul>
    8564:	ee1f5f3c 	mrc	15, 0, r5, cr15, cr12, {1}
    8568:	e59f1514 	ldr	r1, [pc, #1300]	; 8a84 <notmain+0x958>
    856c:	e59f0514 	ldr	r0, [pc, #1300]	; 8a88 <notmain+0x95c>
    8570:	eb000807 	bl	a594 <printk>
    8574:	e0451007 	sub	r1, r5, r7
    8578:	e59f050c 	ldr	r0, [pc, #1292]	; 8a8c <notmain+0x960>
    857c:	eb000804 	bl	a594 <printk>
    8580:	eb000609 	bl	9dac <mmu_is_enabled>
    8584:	e3500000 	cmp	r0, #0, 0
    8588:	0a0000cc 	beq	88c0 <notmain+0x794>
    858c:	eb000603 	bl	9da0 <cp15_ctrl_reg1_rd>
    8590:	e3800a01 	orr	r0, r0, #4096	; 0x1000
    8594:	eb000166 	bl	8b34 <cp15_ctrl_reg1_wr>
    8598:	eb000600 	bl	9da0 <cp15_ctrl_reg1_rd>
    859c:	e3100a01 	tst	r0, #4096	; 0x1000
    85a0:	0a0000ce 	beq	88e0 <notmain+0x7b4>
    85a4:	eb000600 	bl	9dac <mmu_is_enabled>
    85a8:	e3500000 	cmp	r0, #0, 0
    85ac:	0a0000d3 	beq	8900 <notmain+0x7d4>
    85b0:	eb0005fa 	bl	9da0 <cp15_ctrl_reg1_rd>
    85b4:	e3800b02 	orr	r0, r0, #2048	; 0x800
    85b8:	eb00015d 	bl	8b34 <cp15_ctrl_reg1_wr>
    85bc:	eb0005f7 	bl	9da0 <cp15_ctrl_reg1_rd>
    85c0:	e3100b02 	tst	r0, #2048	; 0x800
    85c4:	0a0000d5 	beq	8920 <notmain+0x7f4>
    85c8:	eb0005f7 	bl	9dac <mmu_is_enabled>
    85cc:	e3500000 	cmp	r0, #0, 0
    85d0:	0a0000da 	beq	8940 <notmain+0x814>
    85d4:	eb0005f1 	bl	9da0 <cp15_ctrl_reg1_rd>
    85d8:	e3800004 	orr	r0, r0, #4, 0
    85dc:	eb000154 	bl	8b34 <cp15_ctrl_reg1_wr>
    85e0:	eb0005ee 	bl	9da0 <cp15_ctrl_reg1_rd>
    85e4:	e3100004 	tst	r0, #4, 0
    85e8:	0a0000dc 	beq	8960 <notmain+0x834>
    85ec:	eb0005ee 	bl	9dac <mmu_is_enabled>
    85f0:	e3500000 	cmp	r0, #0, 0
    85f4:	0a0000e1 	beq	8980 <notmain+0x854>
    85f8:	eb0005e8 	bl	9da0 <cp15_ctrl_reg1_rd>
    85fc:	e3800008 	orr	r0, r0, #8, 0
    8600:	eb00014b 	bl	8b34 <cp15_ctrl_reg1_wr>
    8604:	eb0005e5 	bl	9da0 <cp15_ctrl_reg1_rd>
    8608:	e3100008 	tst	r0, #8, 0
    860c:	0a0000e3 	beq	89a0 <notmain+0x874>
    8610:	eb0005e2 	bl	9da0 <cp15_ctrl_reg1_rd>
    8614:	e3100b02 	tst	r0, #2048	; 0x800
    8618:	1a0000e8 	bne	89c0 <notmain+0x894>
    861c:	e1a05004 	mov	r5, r4
    8620:	e3550000 	cmp	r5, #0, 0
    8624:	0a0000f3 	beq	89f8 <notmain+0x8cc>
    8628:	eb0005dc 	bl	9da0 <cp15_ctrl_reg1_rd>
    862c:	e3100b02 	tst	r0, #2048	; 0x800
    8630:	1a0000f8 	bne	8a18 <notmain+0x8ec>
    8634:	e3540000 	cmp	r4, #0, 0
    8638:	0a000100 	beq	8a40 <notmain+0x914>
    863c:	ee1f6f3c 	mrc	15, 0, r6, cr15, cr12, {1}
    8640:	e59f5448 	ldr	r5, [pc, #1096]	; 8a90 <notmain+0x964>
    8644:	e59f4448 	ldr	r4, [pc, #1096]	; 8a94 <notmain+0x968>
    8648:	e1a01005 	mov	r1, r5
    864c:	e1a00004 	mov	r0, r4
    8650:	ebfffe93 	bl	80a4 <init>
    8654:	e59f243c 	ldr	r2, [pc, #1084]	; 8a98 <notmain+0x96c>
    8658:	e1a01005 	mov	r1, r5
    865c:	e1a00004 	mov	r0, r4
    8660:	ebfffe74 	bl	8038 <matmul>
    8664:	ee1f4f3c 	mrc	15, 0, r4, cr15, cr12, {1}
    8668:	e59f1414 	ldr	r1, [pc, #1044]	; 8a84 <notmain+0x958>
    866c:	e59f0414 	ldr	r0, [pc, #1044]	; 8a88 <notmain+0x95c>
    8670:	eb0007c7 	bl	a594 <printk>
    8674:	e0441006 	sub	r1, r4, r6
    8678:	e59f041c 	ldr	r0, [pc, #1052]	; 8a9c <notmain+0x970>
    867c:	eb0007c4 	bl	a594 <printk>
    8680:	e28ddf6f 	add	sp, sp, #444	; 0x1bc
    8684:	e8bd80f0 	pop	{r4, r5, r6, r7, pc}
    8688:	e59f3410 	ldr	r3, [pc, #1040]	; 8aa0 <notmain+0x974>
    868c:	e58d3000 	str	r3, [sp]
    8690:	e3a0302b 	mov	r3, #43, 0	; 0x2b
    8694:	e59f23e8 	ldr	r2, [pc, #1000]	; 8a84 <notmain+0x958>
    8698:	e59f1404 	ldr	r1, [pc, #1028]	; 8aa4 <notmain+0x978>
    869c:	e59f0404 	ldr	r0, [pc, #1028]	; 8aa8 <notmain+0x97c>
    86a0:	eb0007bb 	bl	a594 <printk>
    86a4:	eb0008c3 	bl	a9b8 <clean_reboot>
    86a8:	e59f33fc 	ldr	r3, [pc, #1020]	; 8aac <notmain+0x980>
    86ac:	e58d3000 	str	r3, [sp]
    86b0:	e3a0302c 	mov	r3, #44, 0	; 0x2c
    86b4:	e59f23c8 	ldr	r2, [pc, #968]	; 8a84 <notmain+0x958>
    86b8:	e59f13e4 	ldr	r1, [pc, #996]	; 8aa4 <notmain+0x978>
    86bc:	e59f03e4 	ldr	r0, [pc, #996]	; 8aa8 <notmain+0x97c>
    86c0:	eb0007b3 	bl	a594 <printk>
    86c4:	eb0008bb 	bl	a9b8 <clean_reboot>
    86c8:	e59f33e0 	ldr	r3, [pc, #992]	; 8ab0 <notmain+0x984>
    86cc:	e58d3000 	str	r3, [sp]
    86d0:	e3a03027 	mov	r3, #39, 0	; 0x27
    86d4:	e59f23d8 	ldr	r2, [pc, #984]	; 8ab4 <notmain+0x988>
    86d8:	e59f13d8 	ldr	r1, [pc, #984]	; 8ab8 <notmain+0x98c>
    86dc:	e59f03c4 	ldr	r0, [pc, #964]	; 8aa8 <notmain+0x97c>
    86e0:	eb0007ab 	bl	a594 <printk>
    86e4:	eb0008b3 	bl	a9b8 <clean_reboot>
    86e8:	e59f33c0 	ldr	r3, [pc, #960]	; 8ab0 <notmain+0x984>
    86ec:	e58d3000 	str	r3, [sp]
    86f0:	e3a03027 	mov	r3, #39, 0	; 0x27
    86f4:	e59f23b8 	ldr	r2, [pc, #952]	; 8ab4 <notmain+0x988>
    86f8:	e59f13b8 	ldr	r1, [pc, #952]	; 8ab8 <notmain+0x98c>
    86fc:	e59f03a4 	ldr	r0, [pc, #932]	; 8aa8 <notmain+0x97c>
    8700:	eb0007a3 	bl	a594 <printk>
    8704:	eb0008ab 	bl	a9b8 <clean_reboot>
    8708:	e59f33a0 	ldr	r3, [pc, #928]	; 8ab0 <notmain+0x984>
    870c:	e58d3000 	str	r3, [sp]
    8710:	e3a03027 	mov	r3, #39, 0	; 0x27
    8714:	e59f2398 	ldr	r2, [pc, #920]	; 8ab4 <notmain+0x988>
    8718:	e59f1398 	ldr	r1, [pc, #920]	; 8ab8 <notmain+0x98c>
    871c:	e59f0384 	ldr	r0, [pc, #900]	; 8aa8 <notmain+0x97c>
    8720:	eb00079b 	bl	a594 <printk>
    8724:	eb0008a3 	bl	a9b8 <clean_reboot>
    8728:	e59f338c 	ldr	r3, [pc, #908]	; 8abc <notmain+0x990>
    872c:	e58d3000 	str	r3, [sp]
    8730:	e3a03065 	mov	r3, #101, 0	; 0x65
    8734:	e59f2384 	ldr	r2, [pc, #900]	; 8ac0 <notmain+0x994>
    8738:	e59f1378 	ldr	r1, [pc, #888]	; 8ab8 <notmain+0x98c>
    873c:	e59f0364 	ldr	r0, [pc, #868]	; 8aa8 <notmain+0x97c>
    8740:	eb000793 	bl	a594 <printk>
    8744:	eb00089b 	bl	a9b8 <clean_reboot>
    8748:	e59f3374 	ldr	r3, [pc, #884]	; 8ac4 <notmain+0x998>
    874c:	e58d3000 	str	r3, [sp]
    8750:	e3a03026 	mov	r3, #38, 0	; 0x26
    8754:	e59f2358 	ldr	r2, [pc, #856]	; 8ab4 <notmain+0x988>
    8758:	e59f1358 	ldr	r1, [pc, #856]	; 8ab8 <notmain+0x98c>
    875c:	e59f0344 	ldr	r0, [pc, #836]	; 8aa8 <notmain+0x97c>
    8760:	eb00078b 	bl	a594 <printk>
    8764:	eb000893 	bl	a9b8 <clean_reboot>
    8768:	e59f3340 	ldr	r3, [pc, #832]	; 8ab0 <notmain+0x984>
    876c:	e58d3000 	str	r3, [sp]
    8770:	e3a03027 	mov	r3, #39, 0	; 0x27
    8774:	e59f2338 	ldr	r2, [pc, #824]	; 8ab4 <notmain+0x988>
    8778:	e59f1338 	ldr	r1, [pc, #824]	; 8ab8 <notmain+0x98c>
    877c:	e59f0324 	ldr	r0, [pc, #804]	; 8aa8 <notmain+0x97c>
    8780:	eb000783 	bl	a594 <printk>
    8784:	eb00088b 	bl	a9b8 <clean_reboot>
    8788:	e58d4000 	str	r4, [sp]
    878c:	e3a0306f 	mov	r3, #111, 0	; 0x6f
    8790:	e59f2328 	ldr	r2, [pc, #808]	; 8ac0 <notmain+0x994>
    8794:	e59f131c 	ldr	r1, [pc, #796]	; 8ab8 <notmain+0x98c>
    8798:	e59f0328 	ldr	r0, [pc, #808]	; 8ac8 <notmain+0x99c>
    879c:	eb00077c 	bl	a594 <printk>
    87a0:	eb000884 	bl	a9b8 <clean_reboot>
    87a4:	e58d3000 	str	r3, [sp]
    87a8:	e3a03073 	mov	r3, #115, 0	; 0x73
    87ac:	e59f230c 	ldr	r2, [pc, #780]	; 8ac0 <notmain+0x994>
    87b0:	e59f1300 	ldr	r1, [pc, #768]	; 8ab8 <notmain+0x98c>
    87b4:	e59f0310 	ldr	r0, [pc, #784]	; 8acc <notmain+0x9a0>
    87b8:	eb000775 	bl	a594 <printk>
    87bc:	eb00087d 	bl	a9b8 <clean_reboot>
    87c0:	e59f32fc 	ldr	r3, [pc, #764]	; 8ac4 <notmain+0x998>
    87c4:	e58d3000 	str	r3, [sp]
    87c8:	e3a03026 	mov	r3, #38, 0	; 0x26
    87cc:	e59f22e0 	ldr	r2, [pc, #736]	; 8ab4 <notmain+0x988>
    87d0:	e59f12e0 	ldr	r1, [pc, #736]	; 8ab8 <notmain+0x98c>
    87d4:	e59f02cc 	ldr	r0, [pc, #716]	; 8aa8 <notmain+0x97c>
    87d8:	eb00076d 	bl	a594 <printk>
    87dc:	eb000875 	bl	a9b8 <clean_reboot>
    87e0:	e59f32c8 	ldr	r3, [pc, #712]	; 8ab0 <notmain+0x984>
    87e4:	e58d3000 	str	r3, [sp]
    87e8:	e3a03027 	mov	r3, #39, 0	; 0x27
    87ec:	e59f22c0 	ldr	r2, [pc, #704]	; 8ab4 <notmain+0x988>
    87f0:	e59f12c0 	ldr	r1, [pc, #704]	; 8ab8 <notmain+0x98c>
    87f4:	e59f02ac 	ldr	r0, [pc, #684]	; 8aa8 <notmain+0x97c>
    87f8:	eb000765 	bl	a594 <printk>
    87fc:	eb00086d 	bl	a9b8 <clean_reboot>
    8800:	e59f32bc 	ldr	r3, [pc, #700]	; 8ac4 <notmain+0x998>
    8804:	e58d3000 	str	r3, [sp]
    8808:	e3a03026 	mov	r3, #38, 0	; 0x26
    880c:	e59f22a0 	ldr	r2, [pc, #672]	; 8ab4 <notmain+0x988>
    8810:	e59f12a0 	ldr	r1, [pc, #672]	; 8ab8 <notmain+0x98c>
    8814:	e59f028c 	ldr	r0, [pc, #652]	; 8aa8 <notmain+0x97c>
    8818:	eb00075d 	bl	a594 <printk>
    881c:	eb000865 	bl	a9b8 <clean_reboot>
    8820:	e59f3288 	ldr	r3, [pc, #648]	; 8ab0 <notmain+0x984>
    8824:	e58d3000 	str	r3, [sp]
    8828:	e3a03027 	mov	r3, #39, 0	; 0x27
    882c:	e59f2280 	ldr	r2, [pc, #640]	; 8ab4 <notmain+0x988>
    8830:	e59f1280 	ldr	r1, [pc, #640]	; 8ab8 <notmain+0x98c>
    8834:	e59f026c 	ldr	r0, [pc, #620]	; 8aa8 <notmain+0x97c>
    8838:	eb000755 	bl	a594 <printk>
    883c:	eb00085d 	bl	a9b8 <clean_reboot>
    8840:	e59f327c 	ldr	r3, [pc, #636]	; 8ac4 <notmain+0x998>
    8844:	e58d3000 	str	r3, [sp]
    8848:	e3a03026 	mov	r3, #38, 0	; 0x26
    884c:	e59f2260 	ldr	r2, [pc, #608]	; 8ab4 <notmain+0x988>
    8850:	e59f1260 	ldr	r1, [pc, #608]	; 8ab8 <notmain+0x98c>
    8854:	e59f024c 	ldr	r0, [pc, #588]	; 8aa8 <notmain+0x97c>
    8858:	eb00074d 	bl	a594 <printk>
    885c:	eb000855 	bl	a9b8 <clean_reboot>
    8860:	e59f3248 	ldr	r3, [pc, #584]	; 8ab0 <notmain+0x984>
    8864:	e58d3000 	str	r3, [sp]
    8868:	e3a03027 	mov	r3, #39, 0	; 0x27
    886c:	e59f2240 	ldr	r2, [pc, #576]	; 8ab4 <notmain+0x988>
    8870:	e59f1240 	ldr	r1, [pc, #576]	; 8ab8 <notmain+0x98c>
    8874:	e59f022c 	ldr	r0, [pc, #556]	; 8aa8 <notmain+0x97c>
    8878:	eb000745 	bl	a594 <printk>
    887c:	eb00084d 	bl	a9b8 <clean_reboot>
    8880:	e59f3248 	ldr	r3, [pc, #584]	; 8ad0 <notmain+0x9a4>
    8884:	e58d3000 	str	r3, [sp]
    8888:	e3a03034 	mov	r3, #52, 0	; 0x34
    888c:	e59f21f0 	ldr	r2, [pc, #496]	; 8a84 <notmain+0x958>
    8890:	e59f120c 	ldr	r1, [pc, #524]	; 8aa4 <notmain+0x978>
    8894:	e59f020c 	ldr	r0, [pc, #524]	; 8aa8 <notmain+0x97c>
    8898:	eb00073d 	bl	a594 <printk>
    889c:	eb000845 	bl	a9b8 <clean_reboot>
    88a0:	e59f322c 	ldr	r3, [pc, #556]	; 8ad4 <notmain+0x9a8>
    88a4:	e58d3000 	str	r3, [sp]
    88a8:	e3a0303b 	mov	r3, #59, 0	; 0x3b
    88ac:	e59f21d0 	ldr	r2, [pc, #464]	; 8a84 <notmain+0x958>
    88b0:	e59f11ec 	ldr	r1, [pc, #492]	; 8aa4 <notmain+0x978>
    88b4:	e59f01ec 	ldr	r0, [pc, #492]	; 8aa8 <notmain+0x97c>
    88b8:	eb000735 	bl	a594 <printk>
    88bc:	eb00083d 	bl	a9b8 <clean_reboot>
    88c0:	e59f320c 	ldr	r3, [pc, #524]	; 8ad4 <notmain+0x9a8>
    88c4:	e58d3000 	str	r3, [sp]
    88c8:	e3a03079 	mov	r3, #121, 0	; 0x79
    88cc:	e59f2204 	ldr	r2, [pc, #516]	; 8ad8 <notmain+0x9ac>
    88d0:	e59f1204 	ldr	r1, [pc, #516]	; 8adc <notmain+0x9b0>
    88d4:	e59f01cc 	ldr	r0, [pc, #460]	; 8aa8 <notmain+0x97c>
    88d8:	eb00072d 	bl	a594 <printk>
    88dc:	eb000835 	bl	a9b8 <clean_reboot>
    88e0:	e59f31f8 	ldr	r3, [pc, #504]	; 8ae0 <notmain+0x9b4>
    88e4:	e58d3000 	str	r3, [sp]
    88e8:	e3a0306c 	mov	r3, #108, 0	; 0x6c
    88ec:	e59f21f0 	ldr	r2, [pc, #496]	; 8ae4 <notmain+0x9b8>
    88f0:	e59f11e4 	ldr	r1, [pc, #484]	; 8adc <notmain+0x9b0>
    88f4:	e59f01ac 	ldr	r0, [pc, #428]	; 8aa8 <notmain+0x97c>
    88f8:	eb000725 	bl	a594 <printk>
    88fc:	eb00082d 	bl	a9b8 <clean_reboot>
    8900:	e59f31cc 	ldr	r3, [pc, #460]	; 8ad4 <notmain+0x9a8>
    8904:	e58d3000 	str	r3, [sp]
    8908:	e3a0301a 	mov	r3, #26, 0
    890c:	e59f21d4 	ldr	r2, [pc, #468]	; 8ae8 <notmain+0x9bc>
    8910:	e59f11c4 	ldr	r1, [pc, #452]	; 8adc <notmain+0x9b0>
    8914:	e59f018c 	ldr	r0, [pc, #396]	; 8aa8 <notmain+0x97c>
    8918:	eb00071d 	bl	a594 <printk>
    891c:	eb000825 	bl	a9b8 <clean_reboot>
    8920:	e59f31c4 	ldr	r3, [pc, #452]	; 8aec <notmain+0x9c0>
    8924:	e58d3000 	str	r3, [sp]
    8928:	e3a0301e 	mov	r3, #30, 0
    892c:	e59f21b4 	ldr	r2, [pc, #436]	; 8ae8 <notmain+0x9bc>
    8930:	e59f11a4 	ldr	r1, [pc, #420]	; 8adc <notmain+0x9b0>
    8934:	e59f016c 	ldr	r0, [pc, #364]	; 8aa8 <notmain+0x97c>
    8938:	eb000715 	bl	a594 <printk>
    893c:	eb00081d 	bl	a9b8 <clean_reboot>
    8940:	e59f318c 	ldr	r3, [pc, #396]	; 8ad4 <notmain+0x9a8>
    8944:	e58d3000 	str	r3, [sp]
    8948:	e3a03029 	mov	r3, #41, 0	; 0x29
    894c:	e59f219c 	ldr	r2, [pc, #412]	; 8af0 <notmain+0x9c4>
    8950:	e59f1184 	ldr	r1, [pc, #388]	; 8adc <notmain+0x9b0>
    8954:	e59f014c 	ldr	r0, [pc, #332]	; 8aa8 <notmain+0x97c>
    8958:	eb00070d 	bl	a594 <printk>
    895c:	eb000815 	bl	a9b8 <clean_reboot>
    8960:	e59f318c 	ldr	r3, [pc, #396]	; 8af4 <notmain+0x9c8>
    8964:	e58d3000 	str	r3, [sp]
    8968:	e3a0302e 	mov	r3, #46, 0	; 0x2e
    896c:	e59f217c 	ldr	r2, [pc, #380]	; 8af0 <notmain+0x9c4>
    8970:	e59f1164 	ldr	r1, [pc, #356]	; 8adc <notmain+0x9b0>
    8974:	e59f012c 	ldr	r0, [pc, #300]	; 8aa8 <notmain+0x97c>
    8978:	eb000705 	bl	a594 <printk>
    897c:	eb00080d 	bl	a9b8 <clean_reboot>
    8980:	e59f314c 	ldr	r3, [pc, #332]	; 8ad4 <notmain+0x9a8>
    8984:	e58d3000 	str	r3, [sp]
    8988:	e3a0303a 	mov	r3, #58, 0	; 0x3a
    898c:	e59f2164 	ldr	r2, [pc, #356]	; 8af8 <notmain+0x9cc>
    8990:	e59f1144 	ldr	r1, [pc, #324]	; 8adc <notmain+0x9b0>
    8994:	e59f010c 	ldr	r0, [pc, #268]	; 8aa8 <notmain+0x97c>
    8998:	eb0006fd 	bl	a594 <printk>
    899c:	eb000805 	bl	a9b8 <clean_reboot>
    89a0:	e59f3154 	ldr	r3, [pc, #340]	; 8afc <notmain+0x9d0>
    89a4:	e58d3000 	str	r3, [sp]
    89a8:	e3a0303f 	mov	r3, #63, 0	; 0x3f
    89ac:	e59f2144 	ldr	r2, [pc, #324]	; 8af8 <notmain+0x9cc>
    89b0:	e59f1124 	ldr	r1, [pc, #292]	; 8adc <notmain+0x9b0>
    89b4:	e59f00ec 	ldr	r0, [pc, #236]	; 8aa8 <notmain+0x97c>
    89b8:	eb0006f5 	bl	a594 <printk>
    89bc:	eb0007fd 	bl	a9b8 <clean_reboot>
    89c0:	eb0004f6 	bl	9da0 <cp15_ctrl_reg1_rd>
    89c4:	e3100008 	tst	r0, #8, 0
    89c8:	01a05004 	moveq	r5, r4
    89cc:	0affff13 	beq	8620 <notmain+0x4f4>
    89d0:	eb0004f2 	bl	9da0 <cp15_ctrl_reg1_rd>
    89d4:	e3100004 	tst	r0, #4, 0
    89d8:	01a05004 	moveq	r5, r4
    89dc:	0affff0f 	beq	8620 <notmain+0x4f4>
    89e0:	eb0004ee 	bl	9da0 <cp15_ctrl_reg1_rd>
    89e4:	e3100a01 	tst	r0, #4096	; 0x1000
    89e8:	13a05001 	movne	r5, #1, 0
    89ec:	1affff0b 	bne	8620 <notmain+0x4f4>
    89f0:	e1a05004 	mov	r5, r4
    89f4:	eaffff09 	b	8620 <notmain+0x4f4>
    89f8:	e59f3100 	ldr	r3, [pc, #256]	; 8b00 <notmain+0x9d4>
    89fc:	e58d3000 	str	r3, [sp]
    8a00:	e3a0308d 	mov	r3, #141, 0	; 0x8d
    8a04:	e59f20cc 	ldr	r2, [pc, #204]	; 8ad8 <notmain+0x9ac>
    8a08:	e59f10cc 	ldr	r1, [pc, #204]	; 8adc <notmain+0x9b0>
    8a0c:	e59f0094 	ldr	r0, [pc, #148]	; 8aa8 <notmain+0x97c>
    8a10:	eb0006df 	bl	a594 <printk>
    8a14:	eb0007e7 	bl	a9b8 <clean_reboot>
    8a18:	eb0004e0 	bl	9da0 <cp15_ctrl_reg1_rd>
    8a1c:	e3100008 	tst	r0, #8, 0
    8a20:	0affff03 	beq	8634 <notmain+0x508>
    8a24:	eb0004dd 	bl	9da0 <cp15_ctrl_reg1_rd>
    8a28:	e3100004 	tst	r0, #4, 0
    8a2c:	0affff00 	beq	8634 <notmain+0x508>
    8a30:	eb0004da 	bl	9da0 <cp15_ctrl_reg1_rd>
    8a34:	e3100a01 	tst	r0, #4096	; 0x1000
    8a38:	11a04005 	movne	r4, r5
    8a3c:	eafffefc 	b	8634 <notmain+0x508>
    8a40:	e59f30b8 	ldr	r3, [pc, #184]	; 8b00 <notmain+0x9d4>
    8a44:	e58d3000 	str	r3, [sp]
    8a48:	e3a0304d 	mov	r3, #77, 0	; 0x4d
    8a4c:	e59f2030 	ldr	r2, [pc, #48]	; 8a84 <notmain+0x958>
    8a50:	e59f104c 	ldr	r1, [pc, #76]	; 8aa4 <notmain+0x978>
    8a54:	e59f004c 	ldr	r0, [pc, #76]	; 8aa8 <notmain+0x97c>
    8a58:	eb0006cd 	bl	a594 <printk>
    8a5c:	eb0007d5 	bl	a9b8 <clean_reboot>
    8a60:	e320f000 	.word	0xe320f000
    8a64:	e12fff1e 	.word	0xe12fff1e
    8a68:	00a00080 	.word	0x00a00080
    8a6c:	20100000 	.word	0x20100000
    8a70:	20200000 	.word	0x20200000
    8a74:	0006c060 	.word	0x0006c060
    8a78:	0004c050 	.word	0x0004c050
    8a7c:	0005c050 	.word	0x0005c050
    8a80:	0003c050 	.word	0x0003c050
    8a84:	0000b0dc 	.word	0x0000b0dc
    8a88:	0000b01c 	.word	0x0000b01c
    8a8c:	0000b028 	.word	0x0000b028
    8a90:	0001c050 	.word	0x0001c050
    8a94:	0002c050 	.word	0x0002c050
    8a98:	0000c050 	.word	0x0000c050
    8a9c:	0000b0b8 	.word	0x0000b0b8
    8aa0:	0000af30 	.word	0x0000af30
    8aa4:	0000aee8 	.word	0x0000aee8
    8aa8:	0000af00 	.word	0x0000af00
    8aac:	0000af3c 	.word	0x0000af3c
    8ab0:	0000af64 	.word	0x0000af64
    8ab4:	0000b0e4 	.word	0x0000b0e4
    8ab8:	0000af48 	.word	0x0000af48
    8abc:	0000af70 	.word	0x0000af70
    8ac0:	0000b0f4 	.word	0x0000b0f4
    8ac4:	0000af54 	.word	0x0000af54
    8ac8:	0000af90 	.word	0x0000af90
    8acc:	0000afd4 	.word	0x0000afd4
    8ad0:	0000aff4 	.word	0x0000aff4
    8ad4:	0000b008 	.word	0x0000b008
    8ad8:	0000b108 	.word	0x0000b108
    8adc:	0000b04c 	.word	0x0000b04c
    8ae0:	0000b060 	.word	0x0000b060
    8ae4:	0000b118 	.word	0x0000b118
    8ae8:	0000b124 	.word	0x0000b124
    8aec:	0000b070 	.word	0x0000b070
    8af0:	0000b12c 	.word	0x0000b12c
    8af4:	0000b07c 	.word	0x0000b07c
    8af8:	0000b13c 	.word	0x0000b13c
    8afc:	0000b090 	.word	0x0000b090
    8b00:	0000b0a4 	.word	0x0000b0a4

00008b04 <get_cache_type>:
    8b04:	e3a00000 	mov	r0, #0, 0
    8b08:	ee100f30 	mrc	15, 0, r0, cr0, cr0, {1}
    8b0c:	e12fff1e 	bx	lr

00008b10 <get_domain_ctrl_wr>:
    8b10:	e3a00000 	mov	r0, #0, 0
    8b14:	ee130f10 	mrc	15, 0, r0, cr3, cr0, {0}
    8b18:	e12fff1e 	bx	lr

00008b1c <get_ctrl_reg_1>:
    8b1c:	e3a00000 	mov	r0, #0, 0
    8b20:	ee110f10 	mrc	15, 0, r0, cr1, cr0, {0}
    8b24:	e12fff1e 	bx	lr

00008b28 <get_control_reg1_uint32_t>:
    8b28:	e3a00000 	mov	r0, #0, 0
    8b2c:	ee110f10 	mrc	15, 0, r0, cr1, cr0, {0}
    8b30:	e12fff1e 	bx	lr

00008b34 <cp15_ctrl_reg1_wr>:
    8b34:	ee010f10 	mcr	15, 0, r0, cr1, cr0, {0}
    8b38:	e3a01000 	mov	r1, #0, 0
    8b3c:	ee071f95 	mcr	15, 0, r1, cr7, cr5, {4}
    8b40:	e12fff1e 	bx	lr

00008b44 <mmu_reset>:
    8b44:	e3a00000 	mov	r0, #0, 0
    8b48:	ee070f16 	mcr	15, 0, r0, cr7, cr6, {0}
    8b4c:	ee070f15 	mcr	15, 0, r0, cr7, cr5, {0}
    8b50:	ee070f15 	mcr	15, 0, r0, cr7, cr5, {0}
    8b54:	ee070f15 	mcr	15, 0, r0, cr7, cr5, {0}
    8b58:	ee070f15 	mcr	15, 0, r0, cr7, cr5, {0}
    8b5c:	e320f000 	nop	{0}
    8b60:	e320f000 	nop	{0}
    8b64:	e320f000 	nop	{0}
    8b68:	e320f000 	nop	{0}
    8b6c:	e320f000 	nop	{0}
    8b70:	e320f000 	nop	{0}
    8b74:	e320f000 	nop	{0}
    8b78:	e320f000 	nop	{0}
    8b7c:	e320f000 	nop	{0}
    8b80:	e320f000 	nop	{0}
    8b84:	e320f000 	nop	{0}
    8b88:	ee080f17 	mcr	15, 0, r0, cr8, cr7, {0}
    8b8c:	ee070f9a 	mcr	15, 0, r0, cr7, cr10, {4}
    8b90:	ee070fd5 	mcr	15, 0, r0, cr7, cr5, {6}
    8b94:	ee070f9a 	mcr	15, 0, r0, cr7, cr10, {4}
    8b98:	ee070f95 	mcr	15, 0, r0, cr7, cr5, {4}
    8b9c:	e12fff1e 	bx	lr

00008ba0 <cp15_domain_ctrl_wr>:
    8ba0:	ee030f10 	mcr	15, 0, r0, cr3, cr0, {0}
    8ba4:	e3a00000 	mov	r0, #0, 0
    8ba8:	ee070f95 	mcr	15, 0, r0, cr7, cr5, {4}
    8bac:	e12fff1e 	bx	lr

00008bb0 <cp15_set_procid_ttbr0>:
    8bb0:	e3a03000 	mov	r3, #0, 0
    8bb4:	ee073f9a 	mcr	15, 0, r3, cr7, cr10, {4}
    8bb8:	ee0d3f30 	mcr	15, 0, r3, cr13, cr0, {1}
    8bbc:	ee073f95 	mcr	15, 0, r3, cr7, cr5, {4}
    8bc0:	ee021f10 	mcr	15, 0, r1, cr2, cr0, {0}
    8bc4:	ee023f30 	mcr	15, 0, r3, cr2, cr0, {1}
    8bc8:	ee023f50 	mcr	15, 0, r3, cr2, cr0, {2}
    8bcc:	ee073fd5 	mcr	15, 0, r3, cr7, cr5, {6}
    8bd0:	ee073f95 	mcr	15, 0, r3, cr7, cr5, {4}
    8bd4:	ee0d0f30 	mcr	15, 0, r0, cr13, cr0, {1}
    8bd8:	ee073fd5 	mcr	15, 0, r3, cr7, cr5, {6}
    8bdc:	ee073f95 	mcr	15, 0, r3, cr7, cr5, {4}
    8be0:	e12fff1e 	bx	lr

00008be4 <mmu_disable_set_asm>:
    8be4:	e3a01000 	mov	r1, #0, 0
    8be8:	ee071f1e 	mcr	15, 0, r1, cr7, cr14, {0}
    8bec:	ee071f9a 	mcr	15, 0, r1, cr7, cr10, {4}
    8bf0:	ee010f10 	mcr	15, 0, r0, cr1, cr0, {0}
    8bf4:	ee071f95 	mcr	15, 0, r1, cr7, cr5, {4}
    8bf8:	ee071f15 	mcr	15, 0, r1, cr7, cr5, {0}
    8bfc:	ee071f15 	mcr	15, 0, r1, cr7, cr5, {0}
    8c00:	ee071f15 	mcr	15, 0, r1, cr7, cr5, {0}
    8c04:	ee071f15 	mcr	15, 0, r1, cr7, cr5, {0}
    8c08:	e320f000 	nop	{0}
    8c0c:	e320f000 	nop	{0}
    8c10:	e320f000 	nop	{0}
    8c14:	e320f000 	nop	{0}
    8c18:	e320f000 	nop	{0}
    8c1c:	e320f000 	nop	{0}
    8c20:	e320f000 	nop	{0}
    8c24:	e320f000 	nop	{0}
    8c28:	e320f000 	nop	{0}
    8c2c:	e320f000 	nop	{0}
    8c30:	e320f000 	nop	{0}
    8c34:	ee071fd5 	mcr	15, 0, r1, cr7, cr5, {6}
    8c38:	ee071f9a 	mcr	15, 0, r1, cr7, cr10, {4}
    8c3c:	ee071f95 	mcr	15, 0, r1, cr7, cr5, {4}
    8c40:	e12fff1e 	bx	lr

00008c44 <mmu_enable_set_asm>:
    8c44:	e3a02000 	mov	r2, #0, 0
    8c48:	ee111f10 	mrc	15, 0, r1, cr1, cr0, {0}
    8c4c:	e3c11a01 	bic	r1, r1, #4096	; 0x1000
    8c50:	ee011f10 	mcr	15, 0, r1, cr1, cr0, {0}
    8c54:	ee072f95 	mcr	15, 0, r2, cr7, cr5, {4}
    8c58:	ee072f15 	mcr	15, 0, r2, cr7, cr5, {0}
    8c5c:	ee072f15 	mcr	15, 0, r2, cr7, cr5, {0}
    8c60:	ee072f15 	mcr	15, 0, r2, cr7, cr5, {0}
    8c64:	ee072f15 	mcr	15, 0, r2, cr7, cr5, {0}
    8c68:	e320f000 	nop	{0}
    8c6c:	e320f000 	nop	{0}
    8c70:	e320f000 	nop	{0}
    8c74:	e320f000 	nop	{0}
    8c78:	e320f000 	nop	{0}
    8c7c:	e320f000 	nop	{0}
    8c80:	e320f000 	nop	{0}
    8c84:	e320f000 	nop	{0}
    8c88:	e320f000 	nop	{0}
    8c8c:	e320f000 	nop	{0}
    8c90:	e320f000 	nop	{0}
    8c94:	ee072f9a 	mcr	15, 0, r2, cr7, cr10, {4}
    8c98:	ee010f10 	mcr	15, 0, r0, cr1, cr0, {0}
    8c9c:	ee072f95 	mcr	15, 0, r2, cr7, cr5, {4}
    8ca0:	ee072fd5 	mcr	15, 0, r2, cr7, cr5, {6}
    8ca4:	ee072f95 	mcr	15, 0, r2, cr7, cr5, {4}
    8ca8:	e12fff1e 	bx	lr

00008cac <mmu_sync_pte_mods>:
    8cac:	e3a01000 	mov	r1, #0, 0
    8cb0:	ee071f1e 	mcr	15, 0, r1, cr7, cr14, {0}
    8cb4:	ee071f15 	mcr	15, 0, r1, cr7, cr5, {0}
    8cb8:	ee071f15 	mcr	15, 0, r1, cr7, cr5, {0}
    8cbc:	ee071f15 	mcr	15, 0, r1, cr7, cr5, {0}
    8cc0:	ee071f15 	mcr	15, 0, r1, cr7, cr5, {0}
    8cc4:	e320f000 	nop	{0}
    8cc8:	e320f000 	nop	{0}
    8ccc:	e320f000 	nop	{0}
    8cd0:	e320f000 	nop	{0}
    8cd4:	e320f000 	nop	{0}
    8cd8:	e320f000 	nop	{0}
    8cdc:	e320f000 	nop	{0}
    8ce0:	e320f000 	nop	{0}
    8ce4:	e320f000 	nop	{0}
    8ce8:	e320f000 	nop	{0}
    8cec:	e320f000 	nop	{0}
    8cf0:	ee071f9a 	mcr	15, 0, r1, cr7, cr10, {4}
    8cf4:	ee081f17 	mcr	15, 0, r1, cr8, cr7, {0}
    8cf8:	ee071fd5 	mcr	15, 0, r1, cr7, cr5, {6}
    8cfc:	ee071f9a 	mcr	15, 0, r1, cr7, cr10, {4}
    8d00:	ee071f95 	mcr	15, 0, r1, cr7, cr5, {4}
    8d04:	e12fff1e 	bx	lr

00008d08 <domain_access_ctrl_set>:
    8d08:	e92d4010 	push	{r4, lr}
    8d0c:	e24dd008 	sub	sp, sp, #8, 0
    8d10:	e1a04000 	mov	r4, r0
    8d14:	ee030f10 	mcr	15, 0, r0, cr3, cr0, {0}
    8d18:	e3a03000 	mov	r3, #0, 0
    8d1c:	ee073f95 	mcr	15, 0, r3, cr7, cr5, {4}
    8d20:	eb0004c0 	bl	a028 <domain_access_ctrl_get>
    8d24:	e1500004 	cmp	r0, r4
    8d28:	1a000001 	bne	8d34 <domain_access_ctrl_set+0x2c>
    8d2c:	e28dd008 	add	sp, sp, #8, 0
    8d30:	e8bd8010 	pop	{r4, pc}
    8d34:	e59f3018 	ldr	r3, [pc, #24]	; 8d54 <domain_access_ctrl_set+0x4c>
    8d38:	e58d3000 	str	r3, [sp]
    8d3c:	e3a0300f 	mov	r3, #15, 0
    8d40:	e59f2010 	ldr	r2, [pc, #16]	; 8d58 <domain_access_ctrl_set+0x50>
    8d44:	e59f1010 	ldr	r1, [pc, #16]	; 8d5c <domain_access_ctrl_set+0x54>
    8d48:	e59f0010 	ldr	r0, [pc, #16]	; 8d60 <domain_access_ctrl_set+0x58>
    8d4c:	eb000610 	bl	a594 <printk>
    8d50:	eb000718 	bl	a9b8 <clean_reboot>
    8d54:	0000b154 	.word	0x0000b154
    8d58:	0000b3d8 	.word	0x0000b3d8
    8d5c:	0000b14c 	.word	0x0000b14c
    8d60:	0000af00 	.word	0x0000af00

00008d64 <vm_pt_alloc>:
    8d64:	e52de004 	push	{lr}		; (str lr, [sp, #-4]!)
    8d68:	e24dd00c 	sub	sp, sp, #12, 0
    8d6c:	e3500a01 	cmp	r0, #4096	; 0x1000
    8d70:	1a000008 	bne	8d98 <vm_pt_alloc+0x34>
    8d74:	e3a01901 	mov	r1, #16384	; 0x4000
    8d78:	e1a00100 	lsl	r0, r0, #2
    8d7c:	eb00054a 	bl	a2ac <kmalloc_aligned>
    8d80:	e1a03900 	lsl	r3, r0, #18
    8d84:	e1a03923 	lsr	r3, r3, #18
    8d88:	e3530000 	cmp	r3, #0, 0
    8d8c:	1a000009 	bne	8db8 <vm_pt_alloc+0x54>
    8d90:	e28dd00c 	add	sp, sp, #12, 0
    8d94:	e49df004 	pop	{pc}		; (ldr pc, [sp], #4)
    8d98:	e59f3038 	ldr	r3, [pc, #56]	; 8dd8 <vm_pt_alloc+0x74>
    8d9c:	e58d3000 	str	r3, [sp]
    8da0:	e3a03013 	mov	r3, #19, 0
    8da4:	e59f2030 	ldr	r2, [pc, #48]	; 8ddc <vm_pt_alloc+0x78>
    8da8:	e59f1030 	ldr	r1, [pc, #48]	; 8de0 <vm_pt_alloc+0x7c>
    8dac:	e59f0030 	ldr	r0, [pc, #48]	; 8de4 <vm_pt_alloc+0x80>
    8db0:	eb0005f7 	bl	a594 <printk>
    8db4:	eb0006ff 	bl	a9b8 <clean_reboot>
    8db8:	e59f3028 	ldr	r3, [pc, #40]	; 8de8 <vm_pt_alloc+0x84>
    8dbc:	e58d3000 	str	r3, [sp]
    8dc0:	e3a0301e 	mov	r3, #30, 0
    8dc4:	e59f2010 	ldr	r2, [pc, #16]	; 8ddc <vm_pt_alloc+0x78>
    8dc8:	e59f1010 	ldr	r1, [pc, #16]	; 8de0 <vm_pt_alloc+0x7c>
    8dcc:	e59f0018 	ldr	r0, [pc, #24]	; 8dec <vm_pt_alloc+0x88>
    8dd0:	eb0005ef 	bl	a594 <printk>
    8dd4:	eb0006f7 	bl	a9b8 <clean_reboot>
    8dd8:	0000b1d8 	.word	0x0000b1d8
    8ddc:	0000b3f0 	.word	0x0000b3f0
    8de0:	0000b14c 	.word	0x0000b14c
    8de4:	0000b174 	.word	0x0000b174
    8de8:	0000b228 	.word	0x0000b228
    8dec:	0000b1e4 	.word	0x0000b1e4

00008df0 <vm_dup>:
    8df0:	e92d4070 	push	{r4, r5, r6, lr}
    8df4:	e1a05000 	mov	r5, r0
    8df8:	e3a00a01 	mov	r0, #4096	; 0x1000
    8dfc:	ebffffd8 	bl	8d64 <vm_pt_alloc>
    8e00:	e1a04000 	mov	r4, r0
    8e04:	e3a02901 	mov	r2, #16384	; 0x4000
    8e08:	e1a01005 	mov	r1, r5
    8e0c:	eb00058d 	bl	a448 <memcpy>
    8e10:	e1a00004 	mov	r0, r4
    8e14:	e8bd8070 	pop	{r4, r5, r6, pc}

00008e18 <vm_mmu_enable>:
    8e18:	e52de004 	push	{lr}		; (str lr, [sp, #-4]!)
    8e1c:	e24dd00c 	sub	sp, sp, #12, 0
    8e20:	eb0003e1 	bl	9dac <mmu_is_enabled>
    8e24:	e3500000 	cmp	r0, #0, 0
    8e28:	1a000005 	bne	8e44 <vm_mmu_enable+0x2c>
    8e2c:	eb000425 	bl	9ec8 <mmu_enable>
    8e30:	eb0003dd 	bl	9dac <mmu_is_enabled>
    8e34:	e3500000 	cmp	r0, #0, 0
    8e38:	0a000009 	beq	8e64 <vm_mmu_enable+0x4c>
    8e3c:	e28dd00c 	add	sp, sp, #12, 0
    8e40:	e49df004 	pop	{pc}		; (ldr pc, [sp], #4)
    8e44:	e59f3038 	ldr	r3, [pc, #56]	; 8e84 <vm_mmu_enable+0x6c>
    8e48:	e58d3000 	str	r3, [sp]
    8e4c:	e3a0302e 	mov	r3, #46, 0	; 0x2e
    8e50:	e59f2030 	ldr	r2, [pc, #48]	; 8e88 <vm_mmu_enable+0x70>
    8e54:	e59f1030 	ldr	r1, [pc, #48]	; 8e8c <vm_mmu_enable+0x74>
    8e58:	e59f0030 	ldr	r0, [pc, #48]	; 8e90 <vm_mmu_enable+0x78>
    8e5c:	eb0005cc 	bl	a594 <printk>
    8e60:	eb0006d4 	bl	a9b8 <clean_reboot>
    8e64:	e59f3028 	ldr	r3, [pc, #40]	; 8e94 <vm_mmu_enable+0x7c>
    8e68:	e58d3000 	str	r3, [sp]
    8e6c:	e3a03030 	mov	r3, #48, 0	; 0x30
    8e70:	e59f2010 	ldr	r2, [pc, #16]	; 8e88 <vm_mmu_enable+0x70>
    8e74:	e59f1010 	ldr	r1, [pc, #16]	; 8e8c <vm_mmu_enable+0x74>
    8e78:	e59f0010 	ldr	r0, [pc, #16]	; 8e90 <vm_mmu_enable+0x78>
    8e7c:	eb0005c4 	bl	a594 <printk>
    8e80:	eb0006cc 	bl	a9b8 <clean_reboot>
    8e84:	0000aff4 	.word	0x0000aff4
    8e88:	0000b3fc 	.word	0x0000b3fc
    8e8c:	0000b14c 	.word	0x0000b14c
    8e90:	0000af00 	.word	0x0000af00
    8e94:	0000b008 	.word	0x0000b008

00008e98 <vm_mmu_disable>:
    8e98:	e52de004 	push	{lr}		; (str lr, [sp, #-4]!)
    8e9c:	e24dd00c 	sub	sp, sp, #12, 0
    8ea0:	eb0003c1 	bl	9dac <mmu_is_enabled>
    8ea4:	e3500000 	cmp	r0, #0, 0
    8ea8:	0a000005 	beq	8ec4 <vm_mmu_disable+0x2c>
    8eac:	eb0003dd 	bl	9e28 <mmu_disable>
    8eb0:	eb0003bd 	bl	9dac <mmu_is_enabled>
    8eb4:	e3500000 	cmp	r0, #0, 0
    8eb8:	1a000009 	bne	8ee4 <vm_mmu_disable+0x4c>
    8ebc:	e28dd00c 	add	sp, sp, #12, 0
    8ec0:	e49df004 	pop	{pc}		; (ldr pc, [sp], #4)
    8ec4:	e59f3038 	ldr	r3, [pc, #56]	; 8f04 <vm_mmu_disable+0x6c>
    8ec8:	e58d3000 	str	r3, [sp]
    8ecc:	e3a03035 	mov	r3, #53, 0	; 0x35
    8ed0:	e59f2030 	ldr	r2, [pc, #48]	; 8f08 <vm_mmu_disable+0x70>
    8ed4:	e59f1030 	ldr	r1, [pc, #48]	; 8f0c <vm_mmu_disable+0x74>
    8ed8:	e59f0030 	ldr	r0, [pc, #48]	; 8f10 <vm_mmu_disable+0x78>
    8edc:	eb0005ac 	bl	a594 <printk>
    8ee0:	eb0006b4 	bl	a9b8 <clean_reboot>
    8ee4:	e59f3028 	ldr	r3, [pc, #40]	; 8f14 <vm_mmu_disable+0x7c>
    8ee8:	e58d3000 	str	r3, [sp]
    8eec:	e3a03037 	mov	r3, #55, 0	; 0x37
    8ef0:	e59f2010 	ldr	r2, [pc, #16]	; 8f08 <vm_mmu_disable+0x70>
    8ef4:	e59f1010 	ldr	r1, [pc, #16]	; 8f0c <vm_mmu_disable+0x74>
    8ef8:	e59f0010 	ldr	r0, [pc, #16]	; 8f10 <vm_mmu_disable+0x78>
    8efc:	eb0005a4 	bl	a594 <printk>
    8f00:	eb0006ac 	bl	a9b8 <clean_reboot>
    8f04:	0000b008 	.word	0x0000b008
    8f08:	0000b40c 	.word	0x0000b40c
    8f0c:	0000b14c 	.word	0x0000b14c
    8f10:	0000af00 	.word	0x0000af00
    8f14:	0000aff4 	.word	0x0000aff4

00008f18 <vm_mmu_switch>:
    8f18:	e52de004 	push	{lr}		; (str lr, [sp, #-4]!)
    8f1c:	e24dd00c 	sub	sp, sp, #12, 0
    8f20:	e1a03000 	mov	r3, r0
    8f24:	e1a00001 	mov	r0, r1
    8f28:	e1a01002 	mov	r1, r2
    8f2c:	e2532000 	subs	r2, r3, #0, 0
    8f30:	0a000002 	beq	8f40 <vm_mmu_switch+0x28>
    8f34:	eb0003f8 	bl	9f1c <mmu_set_ctx>
    8f38:	e28dd00c 	add	sp, sp, #12, 0
    8f3c:	e49df004 	pop	{pc}		; (ldr pc, [sp], #4)
    8f40:	e59f3018 	ldr	r3, [pc, #24]	; 8f60 <vm_mmu_switch+0x48>
    8f44:	e58d3000 	str	r3, [sp]
    8f48:	e3a0303e 	mov	r3, #62, 0	; 0x3e
    8f4c:	e59f2010 	ldr	r2, [pc, #16]	; 8f64 <vm_mmu_switch+0x4c>
    8f50:	e59f1010 	ldr	r1, [pc, #16]	; 8f68 <vm_mmu_switch+0x50>
    8f54:	e59f0010 	ldr	r0, [pc, #16]	; 8f6c <vm_mmu_switch+0x54>
    8f58:	eb00058d 	bl	a594 <printk>
    8f5c:	eb000695 	bl	a9b8 <clean_reboot>
    8f60:	0000b254 	.word	0x0000b254
    8f64:	0000b41c 	.word	0x0000b41c
    8f68:	0000b14c 	.word	0x0000b14c
    8f6c:	0000af00 	.word	0x0000af00

00008f70 <vm_mmu_init>:
    8f70:	e92d4010 	push	{r4, lr}
    8f74:	e1a04000 	mov	r4, r0
    8f78:	eb000408 	bl	9fa0 <mmu_init>
    8f7c:	e1a00004 	mov	r0, r4
    8f80:	ebffff60 	bl	8d08 <domain_access_ctrl_set>
    8f84:	e8bd8010 	pop	{r4, pc}

00008f88 <vm_map_sec>:
    8f88:	e24dd008 	sub	sp, sp, #8, 0
    8f8c:	e92d4070 	push	{r4, r5, r6, lr}
    8f90:	e24dd008 	sub	sp, sp, #8, 0
    8f94:	e58d301c 	str	r3, [sp, #28]
    8f98:	e3c134ff 	bic	r3, r1, #-16777216	; 0xff000000
    8f9c:	e3c3360f 	bic	r3, r3, #15728640	; 0xf00000
    8fa0:	e3530000 	cmp	r3, #0, 0
    8fa4:	1a000043 	bne	90b8 <vm_map_sec+0x130>
    8fa8:	e3c234ff 	bic	r3, r2, #-16777216	; 0xff000000
    8fac:	e3c3360f 	bic	r3, r3, #15728640	; 0xf00000
    8fb0:	e3530000 	cmp	r3, #0, 0
    8fb4:	1a000047 	bne	90d8 <vm_map_sec+0x150>
    8fb8:	e59d3028 	ldr	r3, [sp, #40]	; 0x28
    8fbc:	e3530003 	cmp	r3, #3, 0
    8fc0:	1a00004c 	bne	90f8 <vm_map_sec+0x170>
    8fc4:	e1a01a21 	lsr	r1, r1, #20
    8fc8:	e1a05101 	lsl	r5, r1, #2
    8fcc:	e0804101 	add	r4, r0, r1, lsl #2
    8fd0:	e7d0c101 	ldrb	ip, [r0, r1, lsl #2]
    8fd4:	e3ccc001 	bic	ip, ip, #1, 0
    8fd8:	e5dde02d 	ldrb	lr, [sp, #45]	; 0x2d
    8fdc:	e38cc002 	orr	ip, ip, #2, 0
    8fe0:	e20e6001 	and	r6, lr, #1, 0
    8fe4:	e3ccc004 	bic	ip, ip, #4, 0
    8fe8:	e1a030ae 	lsr	r3, lr, #1
    8fec:	e18cc106 	orr	ip, ip, r6, lsl #2
    8ff0:	e2033001 	and	r3, r3, #1, 0
    8ff4:	e3ccc008 	bic	ip, ip, #8, 0
    8ff8:	e18cc183 	orr	ip, ip, r3, lsl #3
    8ffc:	e3ccc010 	bic	ip, ip, #16, 0
    9000:	e7c0c101 	strb	ip, [r0, r1, lsl #2]
    9004:	e19010b5 	ldrh	r1, [r0, r5]
    9008:	e59d3024 	ldr	r3, [sp, #36]	; 0x24
    900c:	e203c00f 	and	ip, r3, #15, 0
    9010:	e3c13e1e 	bic	r3, r1, #480	; 0x1e0
    9014:	e183128c 	orr	r1, r3, ip, lsl #5
    9018:	e18010b5 	strh	r1, [r0, r5]
    901c:	e1a03421 	lsr	r3, r1, #8
    9020:	e5dd102c 	ldrb	r1, [sp, #44]	; 0x2c
    9024:	e201c003 	and	ip, r1, #3, 0
    9028:	e20330f1 	and	r3, r3, #241, 0	; 0xf1
    902c:	e1a0e12e 	lsr	lr, lr, #2
    9030:	e183310c 	orr	r3, r3, ip, lsl #2
    9034:	e20ee007 	and	lr, lr, #7, 0
    9038:	e3c33070 	bic	r3, r3, #112, 0	; 0x70
    903c:	e1a01121 	lsr	r1, r1, #2
    9040:	e183320e 	orr	r3, r3, lr, lsl #4
    9044:	e2011001 	and	r1, r1, #1, 0
    9048:	e3c33080 	bic	r3, r3, #128, 0	; 0x80
    904c:	e1833381 	orr	r3, r3, r1, lsl #7
    9050:	e5c43001 	strb	r3, [r4, #1]
    9054:	e5d43002 	ldrb	r3, [r4, #2]
    9058:	e59d101c 	ldr	r1, [sp, #28]
    905c:	e16f1f11 	clz	r1, r1
    9060:	e1a012a1 	lsr	r1, r1, #5
    9064:	e20330fc 	and	r3, r3, #252, 0	; 0xfc
    9068:	e1833081 	orr	r3, r3, r1, lsl #1
    906c:	e3c33004 	bic	r3, r3, #4, 0
    9070:	e5c43002 	strb	r3, [r4, #2]
    9074:	e1d430b2 	ldrh	r3, [r4, #2]
    9078:	e59f10b8 	ldr	r1, [pc, #184]	; 9138 <vm_map_sec+0x1b0>
    907c:	e0012a22 	and	r2, r1, r2, lsr #20
    9080:	e1c33201 	bic	r3, r3, r1, lsl #4
    9084:	e1832202 	orr	r2, r3, r2, lsl #4
    9088:	e1c420b2 	strh	r2, [r4, #2]
    908c:	e20220f7 	and	r2, r2, #247, 0	; 0xf7
    9090:	e5c42002 	strb	r2, [r4, #2]
    9094:	e1a01004 	mov	r1, r4
    9098:	eb0002a8 	bl	9b40 <vm_pte_print>
    909c:	e3540000 	cmp	r4, #0, 0
    90a0:	0a00001c 	beq	9118 <vm_map_sec+0x190>
    90a4:	e1a00004 	mov	r0, r4
    90a8:	e28dd008 	add	sp, sp, #8, 0
    90ac:	e8bd4070 	pop	{r4, r5, r6, lr}
    90b0:	e28dd008 	add	sp, sp, #8, 0
    90b4:	e12fff1e 	bx	lr
    90b8:	e59f307c 	ldr	r3, [pc, #124]	; 913c <vm_map_sec+0x1b4>
    90bc:	e58d3000 	str	r3, [sp]
    90c0:	e3a0304e 	mov	r3, #78, 0	; 0x4e
    90c4:	e59f2074 	ldr	r2, [pc, #116]	; 9140 <vm_map_sec+0x1b8>
    90c8:	e59f1074 	ldr	r1, [pc, #116]	; 9144 <vm_map_sec+0x1bc>
    90cc:	e59f0074 	ldr	r0, [pc, #116]	; 9148 <vm_map_sec+0x1c0>
    90d0:	eb00052f 	bl	a594 <printk>
    90d4:	eb000637 	bl	a9b8 <clean_reboot>
    90d8:	e59f306c 	ldr	r3, [pc, #108]	; 914c <vm_map_sec+0x1c4>
    90dc:	e58d3000 	str	r3, [sp]
    90e0:	e3a0304f 	mov	r3, #79, 0	; 0x4f
    90e4:	e59f2054 	ldr	r2, [pc, #84]	; 9140 <vm_map_sec+0x1b8>
    90e8:	e59f1054 	ldr	r1, [pc, #84]	; 9144 <vm_map_sec+0x1bc>
    90ec:	e59f0054 	ldr	r0, [pc, #84]	; 9148 <vm_map_sec+0x1c0>
    90f0:	eb000527 	bl	a594 <printk>
    90f4:	eb00062f 	bl	a9b8 <clean_reboot>
    90f8:	e59f3050 	ldr	r3, [pc, #80]	; 9150 <vm_map_sec+0x1c8>
    90fc:	e58d3000 	str	r3, [sp]
    9100:	e3a03052 	mov	r3, #82, 0	; 0x52
    9104:	e59f2034 	ldr	r2, [pc, #52]	; 9140 <vm_map_sec+0x1b8>
    9108:	e59f1034 	ldr	r1, [pc, #52]	; 9144 <vm_map_sec+0x1bc>
    910c:	e59f0034 	ldr	r0, [pc, #52]	; 9148 <vm_map_sec+0x1c0>
    9110:	eb00051f 	bl	a594 <printk>
    9114:	eb000627 	bl	a9b8 <clean_reboot>
    9118:	e59f3034 	ldr	r3, [pc, #52]	; 9154 <vm_map_sec+0x1cc>
    911c:	e58d3000 	str	r3, [sp]
    9120:	e3a03076 	mov	r3, #118, 0	; 0x76
    9124:	e59f2014 	ldr	r2, [pc, #20]	; 9140 <vm_map_sec+0x1b8>
    9128:	e59f1014 	ldr	r1, [pc, #20]	; 9144 <vm_map_sec+0x1bc>
    912c:	e59f0014 	ldr	r0, [pc, #20]	; 9148 <vm_map_sec+0x1c0>
    9130:	eb000517 	bl	a594 <printk>
    9134:	eb00061f 	bl	a9b8 <clean_reboot>
    9138:	00000fff 	.word	0x00000fff
    913c:	0000b258 	.word	0x0000b258
    9140:	0000b42c 	.word	0x0000b42c
    9144:	0000b14c 	.word	0x0000b14c
    9148:	0000af00 	.word	0x0000af00
    914c:	0000b26c 	.word	0x0000b26c
    9150:	0000b280 	.word	0x0000b280
    9154:	0000b2b0 	.word	0x0000b2b0

00009158 <vm_lookup>:
    9158:	e1a03000 	mov	r3, r0
    915c:	e1a01a21 	lsr	r1, r1, #20
    9160:	e0900101 	adds	r0, r0, r1, lsl #2
    9164:	0a000005 	beq	9180 <vm_lookup+0x28>
    9168:	e7d33101 	ldrb	r3, [r3, r1, lsl #2]
    916c:	e2033003 	and	r3, r3, #3, 0
    9170:	e3530002 	cmp	r3, #2, 0
    9174:	012fff1e 	bxeq	lr
    9178:	e3a00000 	mov	r0, #0, 0
    917c:	e12fff1e 	bx	lr
    9180:	e3a00000 	mov	r0, #0, 0
    9184:	e12fff1e 	bx	lr

00009188 <vm_xlate>:
    9188:	e52de004 	push	{lr}		; (str lr, [sp, #-4]!)
    918c:	e1a0c000 	mov	ip, r0
    9190:	e1a03a22 	lsr	r3, r2, #20
    9194:	e0910103 	adds	r0, r1, r3, lsl #2
    9198:	049df004 	popeq	{pc}		; (ldreq pc, [sp], #4)
    919c:	e7d13103 	ldrb	r3, [r1, r3, lsl #2]
    91a0:	e2033003 	and	r3, r3, #3, 0
    91a4:	e3530002 	cmp	r3, #2, 0
    91a8:	1a000007 	bne	91cc <vm_xlate+0x44>
    91ac:	e1d030b2 	ldrh	r3, [r0, #2]
    91b0:	e1a03223 	lsr	r3, r3, #4
    91b4:	e3c224ff 	bic	r2, r2, #-16777216	; 0xff000000
    91b8:	e3c2260f 	bic	r2, r2, #15728640	; 0xf00000
    91bc:	e1a03a03 	lsl	r3, r3, #20
    91c0:	e1832002 	orr	r2, r3, r2
    91c4:	e58c2000 	str	r2, [ip]
    91c8:	e49df004 	pop	{pc}		; (ldr pc, [sp], #4)
    91cc:	e3a00000 	mov	r0, #0, 0
    91d0:	e49df004 	pop	{pc}		; (ldr pc, [sp], #4)

000091d4 <vm_map_kernel>:
    91d4:	e92d43f0 	push	{r4, r5, r6, r7, r8, r9, lr}
    91d8:	e24dd02c 	sub	sp, sp, #44, 0	; 0x2c
    91dc:	e1a06001 	mov	r6, r1
    91e0:	e5901004 	ldr	r1, [r0, #4]
    91e4:	e3510000 	cmp	r1, #0, 0
    91e8:	0a000004 	beq	9200 <vm_map_kernel+0x2c>
    91ec:	e1a05000 	mov	r5, r0
    91f0:	e1b00821 	lsrs	r0, r1, #16
    91f4:	1a000009 	bne	9220 <vm_map_kernel+0x4c>
    91f8:	e1a03000 	mov	r3, r0
    91fc:	ea000010 	b	9244 <vm_map_kernel+0x70>
    9200:	e59f3238 	ldr	r3, [pc, #568]	; 9440 <vm_map_kernel+0x26c>
    9204:	e58d3000 	str	r3, [sp]
    9208:	e3a03030 	mov	r3, #48, 0	; 0x30
    920c:	e59f2230 	ldr	r2, [pc, #560]	; 9444 <vm_map_kernel+0x270>
    9210:	e59f1230 	ldr	r1, [pc, #560]	; 9448 <vm_map_kernel+0x274>
    9214:	e59f0230 	ldr	r0, [pc, #560]	; 944c <vm_map_kernel+0x278>
    9218:	eb0004dd 	bl	a594 <printk>
    921c:	eb0005e5 	bl	a9b8 <clean_reboot>
    9220:	e59f3228 	ldr	r3, [pc, #552]	; 9450 <vm_map_kernel+0x27c>
    9224:	e58d3000 	str	r3, [sp]
    9228:	e3a03031 	mov	r3, #49, 0	; 0x31
    922c:	e59f2210 	ldr	r2, [pc, #528]	; 9444 <vm_map_kernel+0x270>
    9230:	e59f1210 	ldr	r1, [pc, #528]	; 9448 <vm_map_kernel+0x274>
    9234:	e59f0210 	ldr	r0, [pc, #528]	; 944c <vm_map_kernel+0x278>
    9238:	eb0004d5 	bl	a594 <printk>
    923c:	eb0005dd 	bl	a9b8 <clean_reboot>
    9240:	e2833001 	add	r3, r3, #1, 0
    9244:	e353000f 	cmp	r3, #15, 0
    9248:	8a000005 	bhi	9264 <vm_map_kernel+0x90>
    924c:	e3a02001 	mov	r2, #1, 0
    9250:	e0112312 	ands	r2, r1, r2, lsl r3
    9254:	11a02083 	lslne	r2, r3, #1
    9258:	13a0c001 	movne	ip, #1, 0
    925c:	1180021c 	orrne	r0, r0, ip, lsl r2
    9260:	eafffff6 	b	9240 <vm_map_kernel+0x6c>
    9264:	ebffff41 	bl	8f70 <vm_mmu_init>
    9268:	e3a00a01 	mov	r0, #4096	; 0x1000
    926c:	ebfffebc 	bl	8d64 <vm_pt_alloc>
    9270:	e1a07000 	mov	r7, r0
    9274:	e3a02001 	mov	r2, #1, 0
    9278:	e59f11d4 	ldr	r1, [pc, #468]	; 9454 <vm_map_kernel+0x280>
    927c:	ebffff25 	bl	8f18 <vm_mmu_switch>
    9280:	e3a04000 	mov	r4, #0, 0
    9284:	ea000025 	b	9320 <vm_map_kernel+0x14c>
    9288:	e59f31c8 	ldr	r3, [pc, #456]	; 9458 <vm_map_kernel+0x284>
    928c:	e58d3000 	str	r3, [sp]
    9290:	e3a03075 	mov	r3, #117, 0	; 0x75
    9294:	e59f21c0 	ldr	r2, [pc, #448]	; 945c <vm_map_kernel+0x288>
    9298:	e59f11c0 	ldr	r1, [pc, #448]	; 9460 <vm_map_kernel+0x28c>
    929c:	e59f01c0 	ldr	r0, [pc, #448]	; 9464 <vm_map_kernel+0x290>
    92a0:	eb0004bb 	bl	a594 <printk>
    92a4:	eb0005c3 	bl	a9b8 <clean_reboot>
    92a8:	e593200c 	ldr	r2, [r3, #12]
    92ac:	e3520010 	cmp	r2, #16, 0
    92b0:	8a000034 	bhi	9388 <vm_map_kernel+0x1b4>
    92b4:	e3a03001 	mov	r3, #1, 0
    92b8:	e58d3014 	str	r3, [sp, #20]
    92bc:	e3a01000 	mov	r1, #0, 0
    92c0:	e58d1018 	str	r1, [sp, #24]
    92c4:	e58d201c 	str	r2, [sp, #28]
    92c8:	e3a02003 	mov	r2, #3, 0
    92cc:	e58d2020 	str	r2, [sp, #32]
    92d0:	e5cd3024 	strb	r3, [sp, #36]	; 0x24
    92d4:	e3a03004 	mov	r3, #4, 0
    92d8:	e5cd3025 	strb	r3, [sp, #37]	; 0x25
    92dc:	e0859204 	add	r9, r5, r4, lsl #4
    92e0:	e599c008 	ldr	ip, [r9, #8]
    92e4:	e28d3028 	add	r3, sp, #40, 0	; 0x28
    92e8:	e913000f 	ldmdb	r3, {r0, r1, r2, r3}
    92ec:	e88d000f 	stm	sp, {r0, r1, r2, r3}
    92f0:	e59d3014 	ldr	r3, [sp, #20]
    92f4:	e1a0200c 	mov	r2, ip
    92f8:	e1a0100c 	mov	r1, ip
    92fc:	e1a00007 	mov	r0, r7
    9300:	ebffff20 	bl	8f88 <vm_map_sec>
    9304:	e1a08000 	mov	r8, r0
    9308:	e5991008 	ldr	r1, [r9, #8]
    930c:	e1a00007 	mov	r0, r7
    9310:	ebffff90 	bl	9158 <vm_lookup>
    9314:	e1580000 	cmp	r8, r0
    9318:	1a00002f 	bne	93dc <vm_map_kernel+0x208>
    931c:	e2844001 	add	r4, r4, #1, 0
    9320:	e5953000 	ldr	r3, [r5]
    9324:	e1530004 	cmp	r3, r4
    9328:	9a000033 	bls	93fc <vm_map_kernel+0x228>
    932c:	e1a03204 	lsl	r3, r4, #4
    9330:	e2833008 	add	r3, r3, #8, 0
    9334:	e0853003 	add	r3, r5, r3
    9338:	e5d32008 	ldrb	r2, [r3, #8]
    933c:	e3520001 	cmp	r2, #1, 0
    9340:	0affffd8 	beq	92a8 <vm_map_kernel+0xd4>
    9344:	e3520002 	cmp	r2, #2, 0
    9348:	0a000016 	beq	93a8 <vm_map_kernel+0x1d4>
    934c:	e3520000 	cmp	r2, #0, 0
    9350:	1a00001a 	bne	93c0 <vm_map_kernel+0x1ec>
    9354:	e593100c 	ldr	r1, [r3, #12]
    9358:	e3510010 	cmp	r1, #16, 0
    935c:	8affffc9 	bhi	9288 <vm_map_kernel+0xb4>
    9360:	e3a02001 	mov	r2, #1, 0
    9364:	e58d2014 	str	r2, [sp, #20]
    9368:	e3a03000 	mov	r3, #0, 0
    936c:	e58d3018 	str	r3, [sp, #24]
    9370:	e58d101c 	str	r1, [sp, #28]
    9374:	e3a01003 	mov	r1, #3, 0
    9378:	e58d1020 	str	r1, [sp, #32]
    937c:	e5cd2024 	strb	r2, [sp, #36]	; 0x24
    9380:	e5cd3025 	strb	r3, [sp, #37]	; 0x25
    9384:	eaffffd4 	b	92dc <vm_map_kernel+0x108>
    9388:	e59f30c8 	ldr	r3, [pc, #200]	; 9458 <vm_map_kernel+0x284>
    938c:	e58d3000 	str	r3, [sp]
    9390:	e3a03075 	mov	r3, #117, 0	; 0x75
    9394:	e59f20c0 	ldr	r2, [pc, #192]	; 945c <vm_map_kernel+0x288>
    9398:	e59f10c0 	ldr	r1, [pc, #192]	; 9460 <vm_map_kernel+0x28c>
    939c:	e59f00c0 	ldr	r0, [pc, #192]	; 9464 <vm_map_kernel+0x290>
    93a0:	eb00047b 	bl	a594 <printk>
    93a4:	eb000583 	bl	a9b8 <clean_reboot>
    93a8:	e3a030ad 	mov	r3, #173, 0	; 0xad
    93ac:	e59f20b4 	ldr	r2, [pc, #180]	; 9468 <vm_map_kernel+0x294>
    93b0:	e59f10b4 	ldr	r1, [pc, #180]	; 946c <vm_map_kernel+0x298>
    93b4:	e59f00b4 	ldr	r0, [pc, #180]	; 9470 <vm_map_kernel+0x29c>
    93b8:	eb000475 	bl	a594 <printk>
    93bc:	eb00057d 	bl	a9b8 <clean_reboot>
    93c0:	e58d2000 	str	r2, [sp]
    93c4:	e3a030af 	mov	r3, #175, 0	; 0xaf
    93c8:	e59f2098 	ldr	r2, [pc, #152]	; 9468 <vm_map_kernel+0x294>
    93cc:	e59f1098 	ldr	r1, [pc, #152]	; 946c <vm_map_kernel+0x298>
    93d0:	e59f009c 	ldr	r0, [pc, #156]	; 9474 <vm_map_kernel+0x2a0>
    93d4:	eb00046e 	bl	a594 <printk>
    93d8:	eb000576 	bl	a9b8 <clean_reboot>
    93dc:	e59f3094 	ldr	r3, [pc, #148]	; 9478 <vm_map_kernel+0x2a4>
    93e0:	e58d3000 	str	r3, [sp]
    93e4:	e3a030d6 	mov	r3, #214, 0	; 0xd6
    93e8:	e59f208c 	ldr	r2, [pc, #140]	; 947c <vm_map_kernel+0x2a8>
    93ec:	e59f1078 	ldr	r1, [pc, #120]	; 946c <vm_map_kernel+0x298>
    93f0:	e59f0054 	ldr	r0, [pc, #84]	; 944c <vm_map_kernel+0x278>
    93f4:	eb000466 	bl	a594 <printk>
    93f8:	eb00056e 	bl	a9b8 <clean_reboot>
    93fc:	e3560000 	cmp	r6, #0, 0
    9400:	1a000004 	bne	9418 <vm_map_kernel+0x244>
    9404:	e3570000 	cmp	r7, #0, 0
    9408:	0a000004 	beq	9420 <vm_map_kernel+0x24c>
    940c:	e1a00007 	mov	r0, r7
    9410:	e28dd02c 	add	sp, sp, #44, 0	; 0x2c
    9414:	e8bd83f0 	pop	{r4, r5, r6, r7, r8, r9, pc}
    9418:	ebfffe7e 	bl	8e18 <vm_mmu_enable>
    941c:	eafffff8 	b	9404 <vm_map_kernel+0x230>
    9420:	e59f3058 	ldr	r3, [pc, #88]	; 9480 <vm_map_kernel+0x2ac>
    9424:	e58d3000 	str	r3, [sp]
    9428:	e3a030e5 	mov	r3, #229, 0	; 0xe5
    942c:	e59f2048 	ldr	r2, [pc, #72]	; 947c <vm_map_kernel+0x2a8>
    9430:	e59f1034 	ldr	r1, [pc, #52]	; 946c <vm_map_kernel+0x298>
    9434:	e59f0010 	ldr	r0, [pc, #16]	; 944c <vm_map_kernel+0x278>
    9438:	eb000455 	bl	a594 <printk>
    943c:	eb00055d 	bl	a9b8 <clean_reboot>
    9440:	0000b31c 	.word	0x0000b31c
    9444:	0000b444 	.word	0x0000b444
    9448:	0000b310 	.word	0x0000b310
    944c:	0000af00 	.word	0x0000af00
    9450:	0000b324 	.word	0x0000b324
    9454:	0000140e 	.word	0x0000140e
    9458:	0000b37c 	.word	0x0000b37c
    945c:	0000b450 	.word	0x0000b450
    9460:	0000b334 	.word	0x0000b334
    9464:	0000b340 	.word	0x0000b340
    9468:	0000b458 	.word	0x0000b458
    946c:	0000b14c 	.word	0x0000b14c
    9470:	0000b388 	.word	0x0000b388
    9474:	0000b3a8 	.word	0x0000b3a8
    9478:	0000b3cc 	.word	0x0000b3cc
    947c:	0000b460 	.word	0x0000b460
    9480:	0000b254 	.word	0x0000b254

00009484 <control_reg1_sanity_check>:
    9484:	e52de004 	push	{lr}		; (str lr, [sp, #-4]!)
    9488:	e24dd00c 	sub	sp, sp, #12, 0
    948c:	e5d02000 	ldrb	r2, [r0]
    9490:	e2023070 	and	r3, r2, #112, 0	; 0x70
    9494:	e3530070 	cmp	r3, #112, 0	; 0x70
    9498:	1a000014 	bne	94f0 <control_reg1_sanity_check+0x6c>
    949c:	e5d03002 	ldrb	r3, [r0, #2]
    94a0:	e3130001 	tst	r3, #1, 0
    94a4:	0a000019 	beq	9510 <control_reg1_sanity_check+0x8c>
    94a8:	e3130004 	tst	r3, #4, 0
    94ac:	0a00001f 	beq	9530 <control_reg1_sanity_check+0xac>
    94b0:	e3130002 	tst	r3, #2, 0
    94b4:	1a000025 	bne	9550 <control_reg1_sanity_check+0xcc>
    94b8:	e3130008 	tst	r3, #8, 0
    94bc:	1a00002b 	bne	9570 <control_reg1_sanity_check+0xec>
    94c0:	e3130010 	tst	r3, #16, 0
    94c4:	1a000031 	bne	9590 <control_reg1_sanity_check+0x10c>
    94c8:	e5d03003 	ldrb	r3, [r0, #3]
    94cc:	e3130004 	tst	r3, #4, 0
    94d0:	1a000036 	bne	95b0 <control_reg1_sanity_check+0x12c>
    94d4:	e5d03001 	ldrb	r3, [r0, #1]
    94d8:	e3130010 	tst	r3, #16, 0
    94dc:	1a00003b 	bne	95d0 <control_reg1_sanity_check+0x14c>
    94e0:	e3120004 	tst	r2, #4, 0
    94e4:	1a000041 	bne	95f0 <control_reg1_sanity_check+0x16c>
    94e8:	e28dd00c 	add	sp, sp, #12, 0
    94ec:	e49df004 	pop	{pc}		; (ldr pc, [sp], #4)
    94f0:	e59f3118 	ldr	r3, [pc, #280]	; 9610 <control_reg1_sanity_check+0x18c>
    94f4:	e58d3000 	str	r3, [sp]
    94f8:	e3a03044 	mov	r3, #68, 0	; 0x44
    94fc:	e59f2110 	ldr	r2, [pc, #272]	; 9614 <control_reg1_sanity_check+0x190>
    9500:	e59f1110 	ldr	r1, [pc, #272]	; 9618 <control_reg1_sanity_check+0x194>
    9504:	e59f0110 	ldr	r0, [pc, #272]	; 961c <control_reg1_sanity_check+0x198>
    9508:	eb000421 	bl	a594 <printk>
    950c:	eb000529 	bl	a9b8 <clean_reboot>
    9510:	e59f3108 	ldr	r3, [pc, #264]	; 9620 <control_reg1_sanity_check+0x19c>
    9514:	e58d3000 	str	r3, [sp]
    9518:	e3a03045 	mov	r3, #69, 0	; 0x45
    951c:	e59f20f0 	ldr	r2, [pc, #240]	; 9614 <control_reg1_sanity_check+0x190>
    9520:	e59f10f0 	ldr	r1, [pc, #240]	; 9618 <control_reg1_sanity_check+0x194>
    9524:	e59f00f0 	ldr	r0, [pc, #240]	; 961c <control_reg1_sanity_check+0x198>
    9528:	eb000419 	bl	a594 <printk>
    952c:	eb000521 	bl	a9b8 <clean_reboot>
    9530:	e59f30ec 	ldr	r3, [pc, #236]	; 9624 <control_reg1_sanity_check+0x1a0>
    9534:	e58d3000 	str	r3, [sp]
    9538:	e3a03046 	mov	r3, #70, 0	; 0x46
    953c:	e59f20d0 	ldr	r2, [pc, #208]	; 9614 <control_reg1_sanity_check+0x190>
    9540:	e59f10d0 	ldr	r1, [pc, #208]	; 9618 <control_reg1_sanity_check+0x194>
    9544:	e59f00d0 	ldr	r0, [pc, #208]	; 961c <control_reg1_sanity_check+0x198>
    9548:	eb000411 	bl	a594 <printk>
    954c:	eb000519 	bl	a9b8 <clean_reboot>
    9550:	e59f30d0 	ldr	r3, [pc, #208]	; 9628 <control_reg1_sanity_check+0x1a4>
    9554:	e58d3000 	str	r3, [sp]
    9558:	e3a03049 	mov	r3, #73, 0	; 0x49
    955c:	e59f20b0 	ldr	r2, [pc, #176]	; 9614 <control_reg1_sanity_check+0x190>
    9560:	e59f10b0 	ldr	r1, [pc, #176]	; 9618 <control_reg1_sanity_check+0x194>
    9564:	e59f00b0 	ldr	r0, [pc, #176]	; 961c <control_reg1_sanity_check+0x198>
    9568:	eb000409 	bl	a594 <printk>
    956c:	eb000511 	bl	a9b8 <clean_reboot>
    9570:	e59f30b4 	ldr	r3, [pc, #180]	; 962c <control_reg1_sanity_check+0x1a8>
    9574:	e58d3000 	str	r3, [sp]
    9578:	e3a0304a 	mov	r3, #74, 0	; 0x4a
    957c:	e59f2090 	ldr	r2, [pc, #144]	; 9614 <control_reg1_sanity_check+0x190>
    9580:	e59f1090 	ldr	r1, [pc, #144]	; 9618 <control_reg1_sanity_check+0x194>
    9584:	e59f0090 	ldr	r0, [pc, #144]	; 961c <control_reg1_sanity_check+0x198>
    9588:	eb000401 	bl	a594 <printk>
    958c:	eb000509 	bl	a9b8 <clean_reboot>
    9590:	e59f3098 	ldr	r3, [pc, #152]	; 9630 <control_reg1_sanity_check+0x1ac>
    9594:	e58d3000 	str	r3, [sp]
    9598:	e3a0304b 	mov	r3, #75, 0	; 0x4b
    959c:	e59f2070 	ldr	r2, [pc, #112]	; 9614 <control_reg1_sanity_check+0x190>
    95a0:	e59f1070 	ldr	r1, [pc, #112]	; 9618 <control_reg1_sanity_check+0x194>
    95a4:	e59f0070 	ldr	r0, [pc, #112]	; 961c <control_reg1_sanity_check+0x198>
    95a8:	eb0003f9 	bl	a594 <printk>
    95ac:	eb000501 	bl	a9b8 <clean_reboot>
    95b0:	e59f307c 	ldr	r3, [pc, #124]	; 9634 <control_reg1_sanity_check+0x1b0>
    95b4:	e58d3000 	str	r3, [sp]
    95b8:	e3a03054 	mov	r3, #84, 0	; 0x54
    95bc:	e59f2050 	ldr	r2, [pc, #80]	; 9614 <control_reg1_sanity_check+0x190>
    95c0:	e59f1050 	ldr	r1, [pc, #80]	; 9618 <control_reg1_sanity_check+0x194>
    95c4:	e59f0050 	ldr	r0, [pc, #80]	; 961c <control_reg1_sanity_check+0x198>
    95c8:	eb0003f1 	bl	a594 <printk>
    95cc:	eb0004f9 	bl	a9b8 <clean_reboot>
    95d0:	e59f3060 	ldr	r3, [pc, #96]	; 9638 <control_reg1_sanity_check+0x1b4>
    95d4:	e58d3000 	str	r3, [sp]
    95d8:	e3a03055 	mov	r3, #85, 0	; 0x55
    95dc:	e59f2030 	ldr	r2, [pc, #48]	; 9614 <control_reg1_sanity_check+0x190>
    95e0:	e59f1030 	ldr	r1, [pc, #48]	; 9618 <control_reg1_sanity_check+0x194>
    95e4:	e59f0030 	ldr	r0, [pc, #48]	; 961c <control_reg1_sanity_check+0x198>
    95e8:	eb0003e9 	bl	a594 <printk>
    95ec:	eb0004f1 	bl	a9b8 <clean_reboot>
    95f0:	e59f3044 	ldr	r3, [pc, #68]	; 963c <control_reg1_sanity_check+0x1b8>
    95f4:	e58d3000 	str	r3, [sp]
    95f8:	e3a03056 	mov	r3, #86, 0	; 0x56
    95fc:	e59f2010 	ldr	r2, [pc, #16]	; 9614 <control_reg1_sanity_check+0x190>
    9600:	e59f1010 	ldr	r1, [pc, #16]	; 9618 <control_reg1_sanity_check+0x194>
    9604:	e59f0010 	ldr	r0, [pc, #16]	; 961c <control_reg1_sanity_check+0x198>
    9608:	eb0003e1 	bl	a594 <printk>
    960c:	eb0004e9 	bl	a9b8 <clean_reboot>
    9610:	0000b480 	.word	0x0000b480
    9614:	0000bae8 	.word	0x0000bae8
    9618:	0000b470 	.word	0x0000b470
    961c:	0000af00 	.word	0x0000af00
    9620:	0000b498 	.word	0x0000b498
    9624:	0000b4a4 	.word	0x0000b4a4
    9628:	0000b4b0 	.word	0x0000b4b0
    962c:	0000b4c0 	.word	0x0000b4c0
    9630:	0000b4d0 	.word	0x0000b4d0
    9634:	0000b4dc 	.word	0x0000b4dc
    9638:	0000b4ec 	.word	0x0000b4ec
    963c:	0000b500 	.word	0x0000b500

00009640 <fld_check_valid>:
    9640:	e52de004 	push	{lr}		; (str lr, [sp, #-4]!)
    9644:	e24dd00c 	sub	sp, sp, #12, 0
    9648:	e5d03002 	ldrb	r3, [r0, #2]
    964c:	e3130008 	tst	r3, #8, 0
    9650:	1a00000c 	bne	9688 <fld_check_valid+0x48>
    9654:	e5d02000 	ldrb	r2, [r0]
    9658:	e2022003 	and	r2, r2, #3, 0
    965c:	e3520002 	cmp	r2, #2, 0
    9660:	1a000010 	bne	96a8 <fld_check_valid+0x68>
    9664:	e3130001 	tst	r3, #1, 0
    9668:	1a000016 	bne	96c8 <fld_check_valid+0x88>
    966c:	e5d02001 	ldrb	r2, [r0, #1]
    9670:	e3120002 	tst	r2, #2, 0
    9674:	1a00001b 	bne	96e8 <fld_check_valid+0xa8>
    9678:	e3130004 	tst	r3, #4, 0
    967c:	1a000021 	bne	9708 <fld_check_valid+0xc8>
    9680:	e28dd00c 	add	sp, sp, #12, 0
    9684:	e49df004 	pop	{pc}		; (ldr pc, [sp], #4)
    9688:	e59f3098 	ldr	r3, [pc, #152]	; 9728 <fld_check_valid+0xe8>
    968c:	e58d3000 	str	r3, [sp]
    9690:	e3a03086 	mov	r3, #134, 0	; 0x86
    9694:	e59f2090 	ldr	r2, [pc, #144]	; 972c <fld_check_valid+0xec>
    9698:	e59f1090 	ldr	r1, [pc, #144]	; 9730 <fld_check_valid+0xf0>
    969c:	e59f0090 	ldr	r0, [pc, #144]	; 9734 <fld_check_valid+0xf4>
    96a0:	eb0003bb 	bl	a594 <printk>
    96a4:	eb0004c3 	bl	a9b8 <clean_reboot>
    96a8:	e59f3088 	ldr	r3, [pc, #136]	; 9738 <fld_check_valid+0xf8>
    96ac:	e58d3000 	str	r3, [sp]
    96b0:	e3a03087 	mov	r3, #135, 0	; 0x87
    96b4:	e59f2070 	ldr	r2, [pc, #112]	; 972c <fld_check_valid+0xec>
    96b8:	e59f1070 	ldr	r1, [pc, #112]	; 9730 <fld_check_valid+0xf0>
    96bc:	e59f0070 	ldr	r0, [pc, #112]	; 9734 <fld_check_valid+0xf4>
    96c0:	eb0003b3 	bl	a594 <printk>
    96c4:	eb0004bb 	bl	a9b8 <clean_reboot>
    96c8:	e59f306c 	ldr	r3, [pc, #108]	; 973c <fld_check_valid+0xfc>
    96cc:	e58d3000 	str	r3, [sp]
    96d0:	e3a03088 	mov	r3, #136, 0	; 0x88
    96d4:	e59f2050 	ldr	r2, [pc, #80]	; 972c <fld_check_valid+0xec>
    96d8:	e59f1050 	ldr	r1, [pc, #80]	; 9730 <fld_check_valid+0xf0>
    96dc:	e59f0050 	ldr	r0, [pc, #80]	; 9734 <fld_check_valid+0xf4>
    96e0:	eb0003ab 	bl	a594 <printk>
    96e4:	eb0004b3 	bl	a9b8 <clean_reboot>
    96e8:	e59f3050 	ldr	r3, [pc, #80]	; 9740 <fld_check_valid+0x100>
    96ec:	e58d3000 	str	r3, [sp]
    96f0:	e3a03089 	mov	r3, #137, 0	; 0x89
    96f4:	e59f2030 	ldr	r2, [pc, #48]	; 972c <fld_check_valid+0xec>
    96f8:	e59f1030 	ldr	r1, [pc, #48]	; 9730 <fld_check_valid+0xf0>
    96fc:	e59f0030 	ldr	r0, [pc, #48]	; 9734 <fld_check_valid+0xf4>
    9700:	eb0003a3 	bl	a594 <printk>
    9704:	eb0004ab 	bl	a9b8 <clean_reboot>
    9708:	e59f3034 	ldr	r3, [pc, #52]	; 9744 <fld_check_valid+0x104>
    970c:	e58d3000 	str	r3, [sp]
    9710:	e3a0308f 	mov	r3, #143, 0	; 0x8f
    9714:	e59f2010 	ldr	r2, [pc, #16]	; 972c <fld_check_valid+0xec>
    9718:	e59f1010 	ldr	r1, [pc, #16]	; 9730 <fld_check_valid+0xf0>
    971c:	e59f0010 	ldr	r0, [pc, #16]	; 9734 <fld_check_valid+0xf4>
    9720:	eb00039b 	bl	a594 <printk>
    9724:	eb0004a3 	bl	a9b8 <clean_reboot>
    9728:	0000b518 	.word	0x0000b518
    972c:	0000bb04 	.word	0x0000bb04
    9730:	0000b470 	.word	0x0000b470
    9734:	0000af00 	.word	0x0000af00
    9738:	0000b528 	.word	0x0000b528
    973c:	0000b538 	.word	0x0000b538
    9740:	0000b544 	.word	0x0000b544
    9744:	0000b550 	.word	0x0000b550

00009748 <control_reg1_check_offsets>:
    9748:	e52de004 	push	{lr}		; (str lr, [sp, #-4]!)
    974c:	e49df004 	pop	{pc}		; (ldr pc, [sp], #4)

00009750 <tlb_config_check_offsets>:
    9750:	e52de004 	push	{lr}		; (str lr, [sp, #-4]!)
    9754:	e49df004 	pop	{pc}		; (ldr pc, [sp], #4)

00009758 <mmu_be_quiet>:
    9758:	e59f3008 	ldr	r3, [pc, #8]	; 9768 <mmu_be_quiet+0x10>
    975c:	e3a02001 	mov	r2, #1, 0
    9760:	e5832000 	str	r2, [r3]
    9764:	e12fff1e 	bx	lr
    9768:	0006c050 	.word	0x0006c050

0000976c <hash_print>:
    976c:	e1a03002 	mov	r3, r2
    9770:	e59f2108 	ldr	r2, [pc, #264]	; 9880 <hash_print+0x114>
    9774:	e5922000 	ldr	r2, [r2]
    9778:	e3520000 	cmp	r2, #0, 0
    977c:	112fff1e 	bxne	lr
    9780:	e92d4070 	push	{r4, r5, r6, lr}
    9784:	e16f2f11 	clz	r2, r1
    9788:	e1a022a2 	lsr	r2, r2, #5
    978c:	e3530000 	cmp	r3, #0, 0
    9790:	03a02001 	moveq	r2, #1, 0
    9794:	e3520000 	cmp	r2, #0, 0
    9798:	1a000036 	bne	9878 <hash_print+0x10c>
    979c:	e2035003 	and	r5, r3, #3, 0
    97a0:	e1a0e123 	lsr	lr, r3, #2
    97a4:	e1a0c003 	mov	ip, r3
    97a8:	ea00000b 	b	97dc <hash_print+0x70>
    97ac:	e5d14001 	ldrb	r4, [r1, #1]
    97b0:	e5d12000 	ldrb	r2, [r1]
    97b4:	e1822404 	orr	r2, r2, r4, lsl #8
    97b8:	e082200c 	add	r2, r2, ip
    97bc:	e5d14003 	ldrb	r4, [r1, #3]
    97c0:	e5d1c002 	ldrb	ip, [r1, #2]
    97c4:	e18cc404 	orr	ip, ip, r4, lsl #8
    97c8:	e022c58c 	eor	ip, r2, ip, lsl #11
    97cc:	e02cc802 	eor	ip, ip, r2, lsl #16
    97d0:	e2811004 	add	r1, r1, #4, 0
    97d4:	e08cc5ac 	add	ip, ip, ip, lsr #11
    97d8:	e24ee001 	sub	lr, lr, #1, 0
    97dc:	e35e0000 	cmp	lr, #0, 0
    97e0:	1afffff1 	bne	97ac <hash_print+0x40>
    97e4:	e3550002 	cmp	r5, #2, 0
    97e8:	0a000016 	beq	9848 <hash_print+0xdc>
    97ec:	e3550003 	cmp	r5, #3, 0
    97f0:	0a00000b 	beq	9824 <hash_print+0xb8>
    97f4:	e3550001 	cmp	r5, #1, 0
    97f8:	0a000019 	beq	9864 <hash_print+0xf8>
    97fc:	e02c118c 	eor	r1, ip, ip, lsl #3
    9800:	e08112a1 	add	r1, r1, r1, lsr #5
    9804:	e0211201 	eor	r1, r1, r1, lsl #4
    9808:	e08118a1 	add	r1, r1, r1, lsr #17
    980c:	e0211c81 	eor	r1, r1, r1, lsl #25
    9810:	e0812321 	add	r2, r1, r1, lsr #6
    9814:	e1a01000 	mov	r1, r0
    9818:	e59f0064 	ldr	r0, [pc, #100]	; 9884 <hash_print+0x118>
    981c:	eb00035c 	bl	a594 <printk>
    9820:	e8bd8070 	pop	{r4, r5, r6, pc}
    9824:	e5d1e001 	ldrb	lr, [r1, #1]
    9828:	e5d12000 	ldrb	r2, [r1]
    982c:	e182240e 	orr	r2, r2, lr, lsl #8
    9830:	e08cc002 	add	ip, ip, r2
    9834:	e02cc80c 	eor	ip, ip, ip, lsl #16
    9838:	e1d120d2 	ldrsb	r2, [r1, #2]
    983c:	e02cc902 	eor	ip, ip, r2, lsl #18
    9840:	e08cc5ac 	add	ip, ip, ip, lsr #11
    9844:	eaffffec 	b	97fc <hash_print+0x90>
    9848:	e5d1e001 	ldrb	lr, [r1, #1]
    984c:	e5d12000 	ldrb	r2, [r1]
    9850:	e182240e 	orr	r2, r2, lr, lsl #8
    9854:	e08cc002 	add	ip, ip, r2
    9858:	e02cc58c 	eor	ip, ip, ip, lsl #11
    985c:	e08cc8ac 	add	ip, ip, ip, lsr #17
    9860:	eaffffe5 	b	97fc <hash_print+0x90>
    9864:	e1d120d0 	ldrsb	r2, [r1]
    9868:	e08cc002 	add	ip, ip, r2
    986c:	e02cc50c 	eor	ip, ip, ip, lsl #10
    9870:	e08cc0ac 	add	ip, ip, ip, lsr #1
    9874:	eaffffe0 	b	97fc <hash_print+0x90>
    9878:	e3a02000 	mov	r2, #0, 0
    987c:	eaffffe4 	b	9814 <hash_print+0xa8>
    9880:	0006c050 	.word	0x0006c050
    9884:	0000b890 	.word	0x0000b890

00009888 <domain_acl_print>:
    9888:	e59f3028 	ldr	r3, [pc, #40]	; 98b8 <domain_acl_print+0x30>
    988c:	e5933000 	ldr	r3, [r3]
    9890:	e3530000 	cmp	r3, #0, 0
    9894:	112fff1e 	bxne	lr
    9898:	e92d4010 	push	{r4, lr}
    989c:	e59f0018 	ldr	r0, [pc, #24]	; 98bc <domain_acl_print+0x34>
    98a0:	eb00033b 	bl	a594 <printk>
    98a4:	eb0001df 	bl	a028 <domain_access_ctrl_get>
    98a8:	e1a01000 	mov	r1, r0
    98ac:	e59f000c 	ldr	r0, [pc, #12]	; 98c0 <domain_acl_print+0x38>
    98b0:	eb000337 	bl	a594 <printk>
    98b4:	e8bd8010 	pop	{r4, pc}
    98b8:	0006c050 	.word	0x0006c050
    98bc:	0000b8ac 	.word	0x0000b8ac
    98c0:	0000b8c4 	.word	0x0000b8c4

000098c4 <control_reg1_print>:
    98c4:	e92d4070 	push	{r4, r5, r6, lr}
    98c8:	e1a04000 	mov	r4, r0
    98cc:	ebfffeec 	bl	9484 <control_reg1_sanity_check>
    98d0:	e59f01a4 	ldr	r0, [pc, #420]	; 9a7c <control_reg1_print+0x1b8>
    98d4:	eb00032e 	bl	a594 <printk>
    98d8:	e5d41003 	ldrb	r1, [r4, #3]
    98dc:	e1a012a1 	lsr	r1, r1, #5
    98e0:	e59f5198 	ldr	r5, [pc, #408]	; 9a80 <control_reg1_print+0x1bc>
    98e4:	e59f2198 	ldr	r2, [pc, #408]	; 9a84 <control_reg1_print+0x1c0>
    98e8:	e2011001 	and	r1, r1, #1, 0
    98ec:	e1a00005 	mov	r0, r5
    98f0:	eb000327 	bl	a594 <printk>
    98f4:	e5d41003 	ldrb	r1, [r4, #3]
    98f8:	e1a01221 	lsr	r1, r1, #4
    98fc:	e59f2184 	ldr	r2, [pc, #388]	; 9a88 <control_reg1_print+0x1c4>
    9900:	e2011001 	and	r1, r1, #1, 0
    9904:	e1a00005 	mov	r0, r5
    9908:	eb000321 	bl	a594 <printk>
    990c:	e5d41003 	ldrb	r1, [r4, #3]
    9910:	e1a01121 	lsr	r1, r1, #2
    9914:	e59f2170 	ldr	r2, [pc, #368]	; 9a8c <control_reg1_print+0x1c8>
    9918:	e2011001 	and	r1, r1, #1, 0
    991c:	e1a00005 	mov	r0, r5
    9920:	eb00031b 	bl	a594 <printk>
    9924:	e5d41003 	ldrb	r1, [r4, #3]
    9928:	e1a010a1 	lsr	r1, r1, #1
    992c:	e59f215c 	ldr	r2, [pc, #348]	; 9a90 <control_reg1_print+0x1cc>
    9930:	e2011001 	and	r1, r1, #1, 0
    9934:	e1a00005 	mov	r0, r5
    9938:	eb000315 	bl	a594 <printk>
    993c:	e5d41003 	ldrb	r1, [r4, #3]
    9940:	e59f214c 	ldr	r2, [pc, #332]	; 9a94 <control_reg1_print+0x1d0>
    9944:	e2011001 	and	r1, r1, #1, 0
    9948:	e1a00005 	mov	r0, r5
    994c:	eb000310 	bl	a594 <printk>
    9950:	e5d41002 	ldrb	r1, [r4, #2]
    9954:	e59f213c 	ldr	r2, [pc, #316]	; 9a98 <control_reg1_print+0x1d4>
    9958:	e1a013a1 	lsr	r1, r1, #7
    995c:	e1a00005 	mov	r0, r5
    9960:	eb00030b 	bl	a594 <printk>
    9964:	e5d41002 	ldrb	r1, [r4, #2]
    9968:	e1a01321 	lsr	r1, r1, #6
    996c:	e59f2128 	ldr	r2, [pc, #296]	; 9a9c <control_reg1_print+0x1d8>
    9970:	e2011001 	and	r1, r1, #1, 0
    9974:	e1a00005 	mov	r0, r5
    9978:	eb000305 	bl	a594 <printk>
    997c:	e5d41002 	ldrb	r1, [r4, #2]
    9980:	e1a012a1 	lsr	r1, r1, #5
    9984:	e59f2114 	ldr	r2, [pc, #276]	; 9aa0 <control_reg1_print+0x1dc>
    9988:	e2011001 	and	r1, r1, #1, 0
    998c:	e1a00005 	mov	r0, r5
    9990:	eb0002ff 	bl	a594 <printk>
    9994:	e5d41001 	ldrb	r1, [r4, #1]
    9998:	e1a01321 	lsr	r1, r1, #6
    999c:	e59f2100 	ldr	r2, [pc, #256]	; 9aa4 <control_reg1_print+0x1e0>
    99a0:	e2011001 	and	r1, r1, #1, 0
    99a4:	e1a00005 	mov	r0, r5
    99a8:	eb0002f9 	bl	a594 <printk>
    99ac:	e5d41001 	ldrb	r1, [r4, #1]
    99b0:	e1a01221 	lsr	r1, r1, #4
    99b4:	e59f20ec 	ldr	r2, [pc, #236]	; 9aa8 <control_reg1_print+0x1e4>
    99b8:	e2011001 	and	r1, r1, #1, 0
    99bc:	e1a00005 	mov	r0, r5
    99c0:	eb0002f3 	bl	a594 <printk>
    99c4:	e5d41001 	ldrb	r1, [r4, #1]
    99c8:	e1a011a1 	lsr	r1, r1, #3
    99cc:	e59f20d8 	ldr	r2, [pc, #216]	; 9aac <control_reg1_print+0x1e8>
    99d0:	e2011001 	and	r1, r1, #1, 0
    99d4:	e1a00005 	mov	r0, r5
    99d8:	eb0002ed 	bl	a594 <printk>
    99dc:	e5d41001 	ldrb	r1, [r4, #1]
    99e0:	e1a010a1 	lsr	r1, r1, #1
    99e4:	e59f20c4 	ldr	r2, [pc, #196]	; 9ab0 <control_reg1_print+0x1ec>
    99e8:	e2011001 	and	r1, r1, #1, 0
    99ec:	e1a00005 	mov	r0, r5
    99f0:	eb0002e7 	bl	a594 <printk>
    99f4:	e5d41001 	ldrb	r1, [r4, #1]
    99f8:	e59f20b4 	ldr	r2, [pc, #180]	; 9ab4 <control_reg1_print+0x1f0>
    99fc:	e2011001 	and	r1, r1, #1, 0
    9a00:	e1a00005 	mov	r0, r5
    9a04:	eb0002e2 	bl	a594 <printk>
    9a08:	e5d41000 	ldrb	r1, [r4]
    9a0c:	e59f20a4 	ldr	r2, [pc, #164]	; 9ab8 <control_reg1_print+0x1f4>
    9a10:	e1a013a1 	lsr	r1, r1, #7
    9a14:	e1a00005 	mov	r0, r5
    9a18:	eb0002dd 	bl	a594 <printk>
    9a1c:	e5d41000 	ldrb	r1, [r4]
    9a20:	e1a011a1 	lsr	r1, r1, #3
    9a24:	e59f2090 	ldr	r2, [pc, #144]	; 9abc <control_reg1_print+0x1f8>
    9a28:	e2011001 	and	r1, r1, #1, 0
    9a2c:	e1a00005 	mov	r0, r5
    9a30:	eb0002d7 	bl	a594 <printk>
    9a34:	e5d41000 	ldrb	r1, [r4]
    9a38:	e1a01121 	lsr	r1, r1, #2
    9a3c:	e59f207c 	ldr	r2, [pc, #124]	; 9ac0 <control_reg1_print+0x1fc>
    9a40:	e2011001 	and	r1, r1, #1, 0
    9a44:	e1a00005 	mov	r0, r5
    9a48:	eb0002d1 	bl	a594 <printk>
    9a4c:	e5d41000 	ldrb	r1, [r4]
    9a50:	e1a010a1 	lsr	r1, r1, #1
    9a54:	e59f2068 	ldr	r2, [pc, #104]	; 9ac4 <control_reg1_print+0x200>
    9a58:	e2011001 	and	r1, r1, #1, 0
    9a5c:	e1a00005 	mov	r0, r5
    9a60:	eb0002cb 	bl	a594 <printk>
    9a64:	e5d41000 	ldrb	r1, [r4]
    9a68:	e59f2058 	ldr	r2, [pc, #88]	; 9ac8 <control_reg1_print+0x204>
    9a6c:	e2011001 	and	r1, r1, #1, 0
    9a70:	e1a00005 	mov	r0, r5
    9a74:	eb0002c6 	bl	a594 <printk>
    9a78:	e8bd8070 	pop	{r4, r5, r6, pc}
    9a7c:	0000b8cc 	.word	0x0000b8cc
    9a80:	0000b8e4 	.word	0x0000b8e4
    9a84:	0000b808 	.word	0x0000b808
    9a88:	0000b7e0 	.word	0x0000b7e0
    9a8c:	0000b4e0 	.word	0x0000b4e0
    9a90:	0000b7b0 	.word	0x0000b7b0
    9a94:	0000b798 	.word	0x0000b798
    9a98:	0000b778 	.word	0x0000b778
    9a9c:	0000b75c 	.word	0x0000b75c
    9aa0:	0000b740 	.word	0x0000b740
    9aa4:	0000b714 	.word	0x0000b714
    9aa8:	0000b4f0 	.word	0x0000b4f0
    9aac:	0000b6a4 	.word	0x0000b6a4
    9ab0:	0000b670 	.word	0x0000b670
    9ab4:	0000b654 	.word	0x0000b654
    9ab8:	0000b638 	.word	0x0000b638
    9abc:	0000b618 	.word	0x0000b618
    9ac0:	0000b504 	.word	0x0000b504
    9ac4:	0000b5d8 	.word	0x0000b5d8
    9ac8:	0000bbb8 	.word	0x0000bbb8

00009acc <tlb_config_print>:
    9acc:	e92d4010 	push	{r4, lr}
    9ad0:	e1a04000 	mov	r4, r0
    9ad4:	e59f002c 	ldr	r0, [pc, #44]	; 9b08 <tlb_config_print+0x3c>
    9ad8:	eb0002ad 	bl	a594 <printk>
    9adc:	e5d41000 	ldrb	r1, [r4]
    9ae0:	e2011001 	and	r1, r1, #1, 0
    9ae4:	e59f0020 	ldr	r0, [pc, #32]	; 9b0c <tlb_config_print+0x40>
    9ae8:	eb0002a9 	bl	a594 <printk>
    9aec:	e5d41001 	ldrb	r1, [r4, #1]
    9af0:	e59f0018 	ldr	r0, [pc, #24]	; 9b10 <tlb_config_print+0x44>
    9af4:	eb0002a6 	bl	a594 <printk>
    9af8:	e5d41002 	ldrb	r1, [r4, #2]
    9afc:	e59f0010 	ldr	r0, [pc, #16]	; 9b14 <tlb_config_print+0x48>
    9b00:	eb0002a3 	bl	a594 <printk>
    9b04:	e8bd8010 	pop	{r4, pc}
    9b08:	0000b8f0 	.word	0x0000b8f0
    9b0c:	0000b900 	.word	0x0000b900
    9b10:	0000b910 	.word	0x0000b910
    9b14:	0000b928 	.word	0x0000b928

00009b18 <fld_mk>:
    9b18:	e3a00002 	mov	r0, #2, 0
    9b1c:	e12fff1e 	bx	lr

00009b20 <fld_check_offsets>:
    9b20:	e52de004 	push	{lr}		; (str lr, [sp, #-4]!)
    9b24:	e24dd024 	sub	sp, sp, #36, 0	; 0x24
    9b28:	ebfffffa 	bl	9b18 <fld_mk>
    9b2c:	e58d001c 	str	r0, [sp, #28]
    9b30:	e28d001c 	add	r0, sp, #28, 0
    9b34:	ebfffec1 	bl	9640 <fld_check_valid>
    9b38:	e28dd024 	add	sp, sp, #36, 0	; 0x24
    9b3c:	e49df004 	pop	{pc}		; (ldr pc, [sp], #4)

00009b40 <vm_pte_print>:
    9b40:	e92d4030 	push	{r4, r5, lr}
    9b44:	e24dd00c 	sub	sp, sp, #12, 0
    9b48:	e59f31dc 	ldr	r3, [pc, #476]	; 9d2c <vm_pte_print+0x1ec>
    9b4c:	e5933000 	ldr	r3, [r3]
    9b50:	e3530000 	cmp	r3, #0, 0
    9b54:	1a000066 	bne	9cf4 <vm_pte_print+0x1b4>
    9b58:	e1a05000 	mov	r5, r0
    9b5c:	e1a04001 	mov	r4, r1
    9b60:	e59f01c8 	ldr	r0, [pc, #456]	; 9d30 <vm_pte_print+0x1f0>
    9b64:	eb00028a 	bl	a594 <printk>
    9b68:	e0441005 	sub	r1, r4, r5
    9b6c:	e1a02004 	mov	r2, r4
    9b70:	e1a01141 	asr	r1, r1, #2
    9b74:	e59f01b8 	ldr	r0, [pc, #440]	; 9d34 <vm_pte_print+0x1f4>
    9b78:	eb000285 	bl	a594 <printk>
    9b7c:	e3a02004 	mov	r2, #4, 0
    9b80:	e1a01004 	mov	r1, r4
    9b84:	e59f01ac 	ldr	r0, [pc, #428]	; 9d38 <vm_pte_print+0x1f8>
    9b88:	ebfffef7 	bl	976c <hash_print>
    9b8c:	e1d410b2 	ldrh	r1, [r4, #2]
    9b90:	e59f21a4 	ldr	r2, [pc, #420]	; 9d3c <vm_pte_print+0x1fc>
    9b94:	e1a01221 	lsr	r1, r1, #4
    9b98:	e59f01a0 	ldr	r0, [pc, #416]	; 9d40 <vm_pte_print+0x200>
    9b9c:	eb00027c 	bl	a594 <printk>
    9ba0:	e1d430b2 	ldrh	r3, [r4, #2]
    9ba4:	e1a01223 	lsr	r1, r3, #4
    9ba8:	e353008f 	cmp	r3, #143, 0	; 0x8f
    9bac:	8a000058 	bhi	9d14 <vm_pte_print+0x1d4>
    9bb0:	e1d410b2 	ldrh	r1, [r4, #2]
    9bb4:	e1a01221 	lsr	r1, r1, #4
    9bb8:	e1a01a01 	lsl	r1, r1, #20
    9bbc:	e59f0180 	ldr	r0, [pc, #384]	; 9d44 <vm_pte_print+0x204>
    9bc0:	eb000273 	bl	a594 <printk>
    9bc4:	e59f017c 	ldr	r0, [pc, #380]	; 9d48 <vm_pte_print+0x208>
    9bc8:	eb000271 	bl	a594 <printk>
    9bcc:	e5d41002 	ldrb	r1, [r4, #2]
    9bd0:	e1a010a1 	lsr	r1, r1, #1
    9bd4:	e59f5164 	ldr	r5, [pc, #356]	; 9d40 <vm_pte_print+0x200>
    9bd8:	e59f216c 	ldr	r2, [pc, #364]	; 9d4c <vm_pte_print+0x20c>
    9bdc:	e2011001 	and	r1, r1, #1, 0
    9be0:	e1a00005 	mov	r0, r5
    9be4:	eb00026a 	bl	a594 <printk>
    9be8:	e5d41002 	ldrb	r1, [r4, #2]
    9bec:	e59f215c 	ldr	r2, [pc, #348]	; 9d50 <vm_pte_print+0x210>
    9bf0:	e2011001 	and	r1, r1, #1, 0
    9bf4:	e1a00005 	mov	r0, r5
    9bf8:	eb000265 	bl	a594 <printk>
    9bfc:	e5d41001 	ldrb	r1, [r4, #1]
    9c00:	e59f214c 	ldr	r2, [pc, #332]	; 9d54 <vm_pte_print+0x214>
    9c04:	e1a013a1 	lsr	r1, r1, #7
    9c08:	e1a00005 	mov	r0, r5
    9c0c:	eb000260 	bl	a594 <printk>
    9c10:	e5d41001 	ldrb	r1, [r4, #1]
    9c14:	e1a01221 	lsr	r1, r1, #4
    9c18:	e59f2138 	ldr	r2, [pc, #312]	; 9d58 <vm_pte_print+0x218>
    9c1c:	e2011007 	and	r1, r1, #7, 0
    9c20:	e1a00005 	mov	r0, r5
    9c24:	eb00025a 	bl	a594 <printk>
    9c28:	e5d41001 	ldrb	r1, [r4, #1]
    9c2c:	e1a01121 	lsr	r1, r1, #2
    9c30:	e59f2124 	ldr	r2, [pc, #292]	; 9d5c <vm_pte_print+0x21c>
    9c34:	e2011003 	and	r1, r1, #3, 0
    9c38:	e1a00005 	mov	r0, r5
    9c3c:	eb000254 	bl	a594 <printk>
    9c40:	e5d41001 	ldrb	r1, [r4, #1]
    9c44:	e1a010a1 	lsr	r1, r1, #1
    9c48:	e59f2110 	ldr	r2, [pc, #272]	; 9d60 <vm_pte_print+0x220>
    9c4c:	e2011001 	and	r1, r1, #1, 0
    9c50:	e1a00005 	mov	r0, r5
    9c54:	eb00024e 	bl	a594 <printk>
    9c58:	e1d410b0 	ldrh	r1, [r4]
    9c5c:	e1a012a1 	lsr	r1, r1, #5
    9c60:	e59f20fc 	ldr	r2, [pc, #252]	; 9d64 <vm_pte_print+0x224>
    9c64:	e201100f 	and	r1, r1, #15, 0
    9c68:	e1a00005 	mov	r0, r5
    9c6c:	eb000248 	bl	a594 <printk>
    9c70:	e1d410b0 	ldrh	r1, [r4]
    9c74:	e1a012a1 	lsr	r1, r1, #5
    9c78:	e201100f 	and	r1, r1, #15, 0
    9c7c:	e3510008 	cmp	r1, #8, 0
    9c80:	8a000026 	bhi	9d20 <vm_pte_print+0x1e0>
    9c84:	e5d41000 	ldrb	r1, [r4]
    9c88:	e1a01221 	lsr	r1, r1, #4
    9c8c:	e59f50ac 	ldr	r5, [pc, #172]	; 9d40 <vm_pte_print+0x200>
    9c90:	e59f20d0 	ldr	r2, [pc, #208]	; 9d68 <vm_pte_print+0x228>
    9c94:	e2011001 	and	r1, r1, #1, 0
    9c98:	e1a00005 	mov	r0, r5
    9c9c:	eb00023c 	bl	a594 <printk>
    9ca0:	e5d41000 	ldrb	r1, [r4]
    9ca4:	e1a011a1 	lsr	r1, r1, #3
    9ca8:	e59f20bc 	ldr	r2, [pc, #188]	; 9d6c <vm_pte_print+0x22c>
    9cac:	e2011001 	and	r1, r1, #1, 0
    9cb0:	e1a00005 	mov	r0, r5
    9cb4:	eb000236 	bl	a594 <printk>
    9cb8:	e5d41000 	ldrb	r1, [r4]
    9cbc:	e1a01121 	lsr	r1, r1, #2
    9cc0:	e59f20a8 	ldr	r2, [pc, #168]	; 9d70 <vm_pte_print+0x230>
    9cc4:	e2011001 	and	r1, r1, #1, 0
    9cc8:	e1a00005 	mov	r0, r5
    9ccc:	eb000230 	bl	a594 <printk>
    9cd0:	e5d41000 	ldrb	r1, [r4]
    9cd4:	e59f2098 	ldr	r2, [pc, #152]	; 9d74 <vm_pte_print+0x234>
    9cd8:	e2011003 	and	r1, r1, #3, 0
    9cdc:	e1a00005 	mov	r0, r5
    9ce0:	eb00022b 	bl	a594 <printk>
    9ce4:	e1a00004 	mov	r0, r4
    9ce8:	ebfffe54 	bl	9640 <fld_check_valid>
    9cec:	e28dd00c 	add	sp, sp, #12, 0
    9cf0:	e8bd8030 	pop	{r4, r5, pc}
    9cf4:	e59f307c 	ldr	r3, [pc, #124]	; 9d78 <vm_pte_print+0x238>
    9cf8:	e58d3000 	str	r3, [sp]
    9cfc:	e3a030b0 	mov	r3, #176, 0	; 0xb0
    9d00:	e59f2074 	ldr	r2, [pc, #116]	; 9d7c <vm_pte_print+0x23c>
    9d04:	e59f1074 	ldr	r1, [pc, #116]	; 9d80 <vm_pte_print+0x240>
    9d08:	e59f0074 	ldr	r0, [pc, #116]	; 9d84 <vm_pte_print+0x244>
    9d0c:	eb000220 	bl	a594 <printk>
    9d10:	eb000328 	bl	a9b8 <clean_reboot>
    9d14:	e59f006c 	ldr	r0, [pc, #108]	; 9d88 <vm_pte_print+0x248>
    9d18:	eb00021d 	bl	a594 <printk>
    9d1c:	eaffffa3 	b	9bb0 <vm_pte_print+0x70>
    9d20:	e59f0060 	ldr	r0, [pc, #96]	; 9d88 <vm_pte_print+0x248>
    9d24:	eb00021a 	bl	a594 <printk>
    9d28:	eaffffd5 	b	9c84 <vm_pte_print+0x144>
    9d2c:	0006c050 	.word	0x0006c050
    9d30:	0000ba50 	.word	0x0000ba50
    9d34:	0000ba70 	.word	0x0000ba70
    9d38:	0000ba9c 	.word	0x0000ba9c
    9d3c:	0000ba34 	.word	0x0000ba34
    9d40:	0000b8e4 	.word	0x0000b8e4
    9d44:	0000bab0 	.word	0x0000bab0
    9d48:	0000bac0 	.word	0x0000bac0
    9d4c:	0000ba00 	.word	0x0000ba00
    9d50:	0000b9f0 	.word	0x0000b9f0
    9d54:	0000b9e0 	.word	0x0000b9e0
    9d58:	0000b9cc 	.word	0x0000b9cc
    9d5c:	0000b9b8 	.word	0x0000b9b8
    9d60:	0000b9a8 	.word	0x0000b9a8
    9d64:	0000b990 	.word	0x0000b990
    9d68:	0000b97c 	.word	0x0000b97c
    9d6c:	0000b96c 	.word	0x0000b96c
    9d70:	0000b298 	.word	0x0000b298
    9d74:	0000b950 	.word	0x0000b950
    9d78:	0000ba44 	.word	0x0000ba44
    9d7c:	0000bb60 	.word	0x0000bb60
    9d80:	0000b470 	.word	0x0000b470
    9d84:	0000af00 	.word	0x0000af00
    9d88:	0000baa8 	.word	0x0000baa8

00009d8c <check_vm_structs>:
    9d8c:	e92d4010 	push	{r4, lr}
    9d90:	ebfffe6c 	bl	9748 <control_reg1_check_offsets>
    9d94:	ebfffe6d 	bl	9750 <tlb_config_check_offsets>
    9d98:	ebffff60 	bl	9b20 <fld_check_offsets>
    9d9c:	e8bd8010 	pop	{r4, pc}

00009da0 <cp15_ctrl_reg1_rd>:
    9da0:	e92d4010 	push	{r4, lr}
    9da4:	ebfffb5c 	bl	8b1c <get_ctrl_reg_1>
    9da8:	e8bd8010 	pop	{r4, pc}

00009dac <mmu_is_enabled>:
    9dac:	e92d4010 	push	{r4, lr}
    9db0:	ebfffffa 	bl	9da0 <cp15_ctrl_reg1_rd>
    9db4:	e2000001 	and	r0, r0, #1, 0
    9db8:	e8bd8010 	pop	{r4, pc}

00009dbc <mmu_disable_set>:
    9dbc:	e92d4030 	push	{r4, r5, lr}
    9dc0:	e24dd00c 	sub	sp, sp, #12, 0
    9dc4:	e3100001 	tst	r0, #1, 0
    9dc8:	1a000007 	bne	9dec <mmu_disable_set+0x30>
    9dcc:	e1a04000 	mov	r4, r0
    9dd0:	e1a05120 	lsr	r5, r0, #2
    9dd4:	e2055001 	and	r5, r5, #1, 0
    9dd8:	ebfffb81 	bl	8be4 <mmu_disable_set_asm>
    9ddc:	e3550000 	cmp	r5, #0, 0
    9de0:	1a000009 	bne	9e0c <mmu_disable_set+0x50>
    9de4:	e28dd00c 	add	sp, sp, #12, 0
    9de8:	e8bd8030 	pop	{r4, r5, pc}
    9dec:	e59f3024 	ldr	r3, [pc, #36]	; 9e18 <mmu_disable_set+0x5c>
    9df0:	e58d3000 	str	r3, [sp]
    9df4:	e3a03023 	mov	r3, #35, 0	; 0x23
    9df8:	e59f201c 	ldr	r2, [pc, #28]	; 9e1c <mmu_disable_set+0x60>
    9dfc:	e59f101c 	ldr	r1, [pc, #28]	; 9e20 <mmu_disable_set+0x64>
    9e00:	e59f001c 	ldr	r0, [pc, #28]	; 9e24 <mmu_disable_set+0x68>
    9e04:	eb0001e2 	bl	a594 <printk>
    9e08:	eb0002ea 	bl	a9b8 <clean_reboot>
    9e0c:	e3840004 	orr	r0, r4, #4, 0
    9e10:	ebfffb47 	bl	8b34 <cp15_ctrl_reg1_wr>
    9e14:	eafffff2 	b	9de4 <mmu_disable_set+0x28>
    9e18:	0000bb78 	.word	0x0000bb78
    9e1c:	0000bbc4 	.word	0x0000bbc4
    9e20:	0000bb70 	.word	0x0000bb70
    9e24:	0000af00 	.word	0x0000af00

00009e28 <mmu_disable>:
    9e28:	e52de004 	push	{lr}		; (str lr, [sp, #-4]!)
    9e2c:	e24dd00c 	sub	sp, sp, #12, 0
    9e30:	ebffffda 	bl	9da0 <cp15_ctrl_reg1_rd>
    9e34:	e3100001 	tst	r0, #1, 0
    9e38:	0a000003 	beq	9e4c <mmu_disable+0x24>
    9e3c:	e3c00001 	bic	r0, r0, #1, 0
    9e40:	ebffffdd 	bl	9dbc <mmu_disable_set>
    9e44:	e28dd00c 	add	sp, sp, #12, 0
    9e48:	e49df004 	pop	{pc}		; (ldr pc, [sp], #4)
    9e4c:	e59f3018 	ldr	r3, [pc, #24]	; 9e6c <mmu_disable+0x44>
    9e50:	e58d3000 	str	r3, [sp]
    9e54:	e3a03037 	mov	r3, #55, 0	; 0x37
    9e58:	e59f2010 	ldr	r2, [pc, #16]	; 9e70 <mmu_disable+0x48>
    9e5c:	e59f1010 	ldr	r1, [pc, #16]	; 9e74 <mmu_disable+0x4c>
    9e60:	e59f0010 	ldr	r0, [pc, #16]	; 9e78 <mmu_disable+0x50>
    9e64:	eb0001ca 	bl	a594 <printk>
    9e68:	eb0002d2 	bl	a9b8 <clean_reboot>
    9e6c:	0000bb88 	.word	0x0000bb88
    9e70:	0000bbd4 	.word	0x0000bbd4
    9e74:	0000bb70 	.word	0x0000bb70
    9e78:	0000af00 	.word	0x0000af00

00009e7c <mmu_enable_set>:
    9e7c:	e52de004 	push	{lr}		; (str lr, [sp, #-4]!)
    9e80:	e24dd00c 	sub	sp, sp, #12, 0
    9e84:	e3100001 	tst	r0, #1, 0
    9e88:	0a000002 	beq	9e98 <mmu_enable_set+0x1c>
    9e8c:	ebfffb6c 	bl	8c44 <mmu_enable_set_asm>
    9e90:	e28dd00c 	add	sp, sp, #12, 0
    9e94:	e49df004 	pop	{pc}		; (ldr pc, [sp], #4)
    9e98:	e59f3018 	ldr	r3, [pc, #24]	; 9eb8 <mmu_enable_set+0x3c>
    9e9c:	e58d3000 	str	r3, [sp]
    9ea0:	e3a03041 	mov	r3, #65, 0	; 0x41
    9ea4:	e59f2010 	ldr	r2, [pc, #16]	; 9ebc <mmu_enable_set+0x40>
    9ea8:	e59f1010 	ldr	r1, [pc, #16]	; 9ec0 <mmu_enable_set+0x44>
    9eac:	e59f0010 	ldr	r0, [pc, #16]	; 9ec4 <mmu_enable_set+0x48>
    9eb0:	eb0001b7 	bl	a594 <printk>
    9eb4:	eb0002bf 	bl	a9b8 <clean_reboot>
    9eb8:	0000bb88 	.word	0x0000bb88
    9ebc:	0000bbe0 	.word	0x0000bbe0
    9ec0:	0000bb70 	.word	0x0000bb70
    9ec4:	0000af00 	.word	0x0000af00

00009ec8 <mmu_enable>:
    9ec8:	e52de004 	push	{lr}		; (str lr, [sp, #-4]!)
    9ecc:	e24dd00c 	sub	sp, sp, #12, 0
    9ed0:	ebffffb2 	bl	9da0 <cp15_ctrl_reg1_rd>
    9ed4:	e3100001 	tst	r0, #1, 0
    9ed8:	1a000003 	bne	9eec <mmu_enable+0x24>
    9edc:	e3800001 	orr	r0, r0, #1, 0
    9ee0:	ebffffe5 	bl	9e7c <mmu_enable_set>
    9ee4:	e28dd00c 	add	sp, sp, #12, 0
    9ee8:	e49df004 	pop	{pc}		; (ldr pc, [sp], #4)
    9eec:	e59f3018 	ldr	r3, [pc, #24]	; 9f0c <mmu_enable+0x44>
    9ef0:	e58d3000 	str	r3, [sp]
    9ef4:	e3a03049 	mov	r3, #73, 0	; 0x49
    9ef8:	e59f2010 	ldr	r2, [pc, #16]	; 9f10 <mmu_enable+0x48>
    9efc:	e59f1010 	ldr	r1, [pc, #16]	; 9f14 <mmu_enable+0x4c>
    9f00:	e59f0010 	ldr	r0, [pc, #16]	; 9f18 <mmu_enable+0x50>
    9f04:	eb0001a2 	bl	a594 <printk>
    9f08:	eb0002aa 	bl	a9b8 <clean_reboot>
    9f0c:	0000bb78 	.word	0x0000bb78
    9f10:	0000bbf0 	.word	0x0000bbf0
    9f14:	0000bb70 	.word	0x0000bb70
    9f18:	0000af00 	.word	0x0000af00

00009f1c <mmu_set_ctx>:
    9f1c:	e52de004 	push	{lr}		; (str lr, [sp, #-4]!)
    9f20:	e24dd00c 	sub	sp, sp, #12, 0
    9f24:	e1a03001 	mov	r3, r1
    9f28:	e3530000 	cmp	r3, #0, 0
    9f2c:	0a000006 	beq	9f4c <mmu_set_ctx+0x30>
    9f30:	e1a01002 	mov	r1, r2
    9f34:	e353003f 	cmp	r3, #63, 0	; 0x3f
    9f38:	8a00000b 	bhi	9f6c <mmu_set_ctx+0x50>
    9f3c:	e1830400 	orr	r0, r3, r0, lsl #8
    9f40:	ebfffb1a 	bl	8bb0 <cp15_set_procid_ttbr0>
    9f44:	e28dd00c 	add	sp, sp, #12, 0
    9f48:	e49df004 	pop	{pc}		; (ldr pc, [sp], #4)
    9f4c:	e59f3038 	ldr	r3, [pc, #56]	; 9f8c <mmu_set_ctx+0x70>
    9f50:	e58d3000 	str	r3, [sp]
    9f54:	e3a03050 	mov	r3, #80, 0	; 0x50
    9f58:	e59f2030 	ldr	r2, [pc, #48]	; 9f90 <mmu_set_ctx+0x74>
    9f5c:	e59f1030 	ldr	r1, [pc, #48]	; 9f94 <mmu_set_ctx+0x78>
    9f60:	e59f0030 	ldr	r0, [pc, #48]	; 9f98 <mmu_set_ctx+0x7c>
    9f64:	eb00018a 	bl	a594 <printk>
    9f68:	eb000292 	bl	a9b8 <clean_reboot>
    9f6c:	e59f3028 	ldr	r3, [pc, #40]	; 9f9c <mmu_set_ctx+0x80>
    9f70:	e58d3000 	str	r3, [sp]
    9f74:	e3a03051 	mov	r3, #81, 0	; 0x51
    9f78:	e59f2010 	ldr	r2, [pc, #16]	; 9f90 <mmu_set_ctx+0x74>
    9f7c:	e59f1010 	ldr	r1, [pc, #16]	; 9f94 <mmu_set_ctx+0x78>
    9f80:	e59f0010 	ldr	r0, [pc, #16]	; 9f98 <mmu_set_ctx+0x7c>
    9f84:	eb000182 	bl	a594 <printk>
    9f88:	eb00028a 	bl	a9b8 <clean_reboot>
    9f8c:	0000bb98 	.word	0x0000bb98
    9f90:	0000bbfc 	.word	0x0000bbfc
    9f94:	0000bb70 	.word	0x0000bb70
    9f98:	0000af00 	.word	0x0000af00
    9f9c:	0000bba0 	.word	0x0000bba0

00009fa0 <mmu_init>:
    9fa0:	e52de004 	push	{lr}		; (str lr, [sp, #-4]!)
    9fa4:	e24dd00c 	sub	sp, sp, #12, 0
    9fa8:	ebfffae5 	bl	8b44 <mmu_reset>
    9fac:	ebffff7b 	bl	9da0 <cp15_ctrl_reg1_rd>
    9fb0:	e3800502 	orr	r0, r0, #8388608	; 0x800000
    9fb4:	ebfffade 	bl	8b34 <cp15_ctrl_reg1_wr>
    9fb8:	ebffff78 	bl	9da0 <cp15_ctrl_reg1_rd>
    9fbc:	e3100502 	tst	r0, #8388608	; 0x800000
    9fc0:	0a000003 	beq	9fd4 <mmu_init+0x34>
    9fc4:	e3100001 	tst	r0, #1, 0
    9fc8:	1a000009 	bne	9ff4 <mmu_init+0x54>
    9fcc:	e28dd00c 	add	sp, sp, #12, 0
    9fd0:	e49df004 	pop	{pc}		; (ldr pc, [sp], #4)
    9fd4:	e59f3038 	ldr	r3, [pc, #56]	; a014 <mmu_init+0x74>
    9fd8:	e58d3000 	str	r3, [sp]
    9fdc:	e3a0306a 	mov	r3, #106, 0	; 0x6a
    9fe0:	e59f2030 	ldr	r2, [pc, #48]	; a018 <mmu_init+0x78>
    9fe4:	e59f1030 	ldr	r1, [pc, #48]	; a01c <mmu_init+0x7c>
    9fe8:	e59f0030 	ldr	r0, [pc, #48]	; a020 <mmu_init+0x80>
    9fec:	eb000168 	bl	a594 <printk>
    9ff0:	eb000270 	bl	a9b8 <clean_reboot>
    9ff4:	e59f3028 	ldr	r3, [pc, #40]	; a024 <mmu_init+0x84>
    9ff8:	e58d3000 	str	r3, [sp]
    9ffc:	e3a0306b 	mov	r3, #107, 0	; 0x6b
    a000:	e59f2010 	ldr	r2, [pc, #16]	; a018 <mmu_init+0x78>
    a004:	e59f1010 	ldr	r1, [pc, #16]	; a01c <mmu_init+0x7c>
    a008:	e59f0010 	ldr	r0, [pc, #16]	; a020 <mmu_init+0x80>
    a00c:	eb000160 	bl	a594 <printk>
    a010:	eb000268 	bl	a9b8 <clean_reboot>
    a014:	0000bba8 	.word	0x0000bba8
    a018:	0000bc08 	.word	0x0000bc08
    a01c:	0000bb70 	.word	0x0000bb70
    a020:	0000af00 	.word	0x0000af00
    a024:	0000bbb4 	.word	0x0000bbb4

0000a028 <domain_access_ctrl_get>:
    a028:	e92d4010 	push	{r4, lr}
    a02c:	ebfffab7 	bl	8b10 <get_domain_ctrl_wr>
    a030:	e8bd8010 	pop	{r4, pc}

0000a034 <kmalloc_heap_end>:
    a034:	e59f3004 	ldr	r3, [pc, #4]	; a040 <kmalloc_heap_end+0xc>
    a038:	e5930000 	ldr	r0, [r3]
    a03c:	e12fff1e 	bx	lr
    a040:	0006c054 	.word	0x0006c054

0000a044 <kmalloc_heap_start>:
    a044:	e59f3004 	ldr	r3, [pc, #4]	; a050 <kmalloc_heap_start+0xc>
    a048:	e5930004 	ldr	r0, [r3, #4]
    a04c:	e12fff1e 	bx	lr
    a050:	0006c054 	.word	0x0006c054

0000a054 <kmalloc_heap_ptr>:
    a054:	e59f3004 	ldr	r3, [pc, #4]	; a060 <kmalloc_heap_ptr+0xc>
    a058:	e5930008 	ldr	r0, [r3, #8]
    a05c:	e12fff1e 	bx	lr
    a060:	0006c054 	.word	0x0006c054

0000a064 <kmalloc_init_set_start>:
    a064:	e92d4030 	push	{r4, r5, lr}
    a068:	e24dd00c 	sub	sp, sp, #12, 0
    a06c:	e1a04000 	mov	r4, r0
    a070:	e1a05001 	mov	r5, r1
    a074:	eb000257 	bl	a9d8 <program_end>
    a078:	e1540000 	cmp	r4, r0
    a07c:	3a000010 	bcc	a0c4 <kmalloc_init_set_start+0x60>
    a080:	e3550000 	cmp	r5, #0, 0
    a084:	0a000014 	beq	a0dc <kmalloc_init_set_start+0x78>
    a088:	e59f30ac 	ldr	r3, [pc, #172]	; a13c <kmalloc_init_set_start+0xd8>
    a08c:	e5933004 	ldr	r3, [r3, #4]
    a090:	e1530004 	cmp	r3, r4
    a094:	8a000018 	bhi	a0fc <kmalloc_init_set_start+0x98>
    a098:	e59f309c 	ldr	r3, [pc, #156]	; a13c <kmalloc_init_set_start+0xd8>
    a09c:	e5933008 	ldr	r3, [r3, #8]
    a0a0:	e1530004 	cmp	r3, r4
    a0a4:	8a00001a 	bhi	a114 <kmalloc_init_set_start+0xb0>
    a0a8:	e59f308c 	ldr	r3, [pc, #140]	; a13c <kmalloc_init_set_start+0xd8>
    a0ac:	e5834008 	str	r4, [r3, #8]
    a0b0:	e5834004 	str	r4, [r3, #4]
    a0b4:	e0844005 	add	r4, r4, r5
    a0b8:	e5834000 	str	r4, [r3]
    a0bc:	e28dd00c 	add	sp, sp, #12, 0
    a0c0:	e8bd8030 	pop	{r4, r5, pc}
    a0c4:	e3a03030 	mov	r3, #48, 0	; 0x30
    a0c8:	e59f2070 	ldr	r2, [pc, #112]	; a140 <kmalloc_init_set_start+0xdc>
    a0cc:	e59f1070 	ldr	r1, [pc, #112]	; a144 <kmalloc_init_set_start+0xe0>
    a0d0:	e59f0070 	ldr	r0, [pc, #112]	; a148 <kmalloc_init_set_start+0xe4>
    a0d4:	eb00012e 	bl	a594 <printk>
    a0d8:	eb000236 	bl	a9b8 <clean_reboot>
    a0dc:	e59f3068 	ldr	r3, [pc, #104]	; a14c <kmalloc_init_set_start+0xe8>
    a0e0:	e58d3000 	str	r3, [sp]
    a0e4:	e3a03032 	mov	r3, #50, 0	; 0x32
    a0e8:	e59f2050 	ldr	r2, [pc, #80]	; a140 <kmalloc_init_set_start+0xdc>
    a0ec:	e59f1050 	ldr	r1, [pc, #80]	; a144 <kmalloc_init_set_start+0xe0>
    a0f0:	e59f0058 	ldr	r0, [pc, #88]	; a150 <kmalloc_init_set_start+0xec>
    a0f4:	eb000126 	bl	a594 <printk>
    a0f8:	eb00022e 	bl	a9b8 <clean_reboot>
    a0fc:	e3a03034 	mov	r3, #52, 0	; 0x34
    a100:	e59f2038 	ldr	r2, [pc, #56]	; a140 <kmalloc_init_set_start+0xdc>
    a104:	e59f1038 	ldr	r1, [pc, #56]	; a144 <kmalloc_init_set_start+0xe0>
    a108:	e59f0044 	ldr	r0, [pc, #68]	; a154 <kmalloc_init_set_start+0xf0>
    a10c:	eb000120 	bl	a594 <printk>
    a110:	eb000228 	bl	a9b8 <clean_reboot>
    a114:	e59f3020 	ldr	r3, [pc, #32]	; a13c <kmalloc_init_set_start+0xd8>
    a118:	e5933000 	ldr	r3, [r3]
    a11c:	e58d3004 	str	r3, [sp, #4]
    a120:	e58d4000 	str	r4, [sp]
    a124:	e3a03038 	mov	r3, #56, 0	; 0x38
    a128:	e59f2010 	ldr	r2, [pc, #16]	; a140 <kmalloc_init_set_start+0xdc>
    a12c:	e59f1010 	ldr	r1, [pc, #16]	; a144 <kmalloc_init_set_start+0xe0>
    a130:	e59f0020 	ldr	r0, [pc, #32]	; a158 <kmalloc_init_set_start+0xf4>
    a134:	eb000116 	bl	a594 <printk>
    a138:	eb00021e 	bl	a9b8 <clean_reboot>
    a13c:	0006c054 	.word	0x0006c054
    a140:	0000be24 	.word	0x0000be24
    a144:	0000bc14 	.word	0x0000bc14
    a148:	0000bc20 	.word	0x0000bc20
    a14c:	0000bc48 	.word	0x0000bc48
    a150:	0000af00 	.word	0x0000af00
    a154:	0000bc54 	.word	0x0000bc54
    a158:	0000bca0 	.word	0x0000bca0

0000a15c <kmalloc_notzero>:
    a15c:	e52de004 	push	{lr}		; (str lr, [sp, #-4]!)
    a160:	e24dd00c 	sub	sp, sp, #12, 0
    a164:	e3500000 	cmp	r0, #0, 0
    a168:	0a00000f 	beq	a1ac <kmalloc_notzero+0x50>
    a16c:	e2800007 	add	r0, r0, #7, 0
    a170:	e3c03007 	bic	r3, r0, #7, 0
    a174:	e59f20ac 	ldr	r2, [pc, #172]	; a228 <kmalloc_notzero+0xcc>
    a178:	e5920008 	ldr	r0, [r2, #8]
    a17c:	e3100007 	tst	r0, #7, 0
    a180:	1a000011 	bne	a1cc <kmalloc_notzero+0x70>
    a184:	e3500000 	cmp	r0, #0, 0
    a188:	0a000017 	beq	a1ec <kmalloc_notzero+0x90>
    a18c:	e0802003 	add	r2, r0, r3
    a190:	e59f1090 	ldr	r1, [pc, #144]	; a228 <kmalloc_notzero+0xcc>
    a194:	e5812008 	str	r2, [r1, #8]
    a198:	e5911000 	ldr	r1, [r1]
    a19c:	e1520001 	cmp	r2, r1
    a1a0:	8a000017 	bhi	a204 <kmalloc_notzero+0xa8>
    a1a4:	e28dd00c 	add	sp, sp, #12, 0
    a1a8:	e49df004 	pop	{pc}		; (ldr pc, [sp], #4)
    a1ac:	e59f3078 	ldr	r3, [pc, #120]	; a22c <kmalloc_notzero+0xd0>
    a1b0:	e58d3000 	str	r3, [sp]
    a1b4:	e3a03041 	mov	r3, #65, 0	; 0x41
    a1b8:	e59f2070 	ldr	r2, [pc, #112]	; a230 <kmalloc_notzero+0xd4>
    a1bc:	e59f1070 	ldr	r1, [pc, #112]	; a234 <kmalloc_notzero+0xd8>
    a1c0:	e59f0070 	ldr	r0, [pc, #112]	; a238 <kmalloc_notzero+0xdc>
    a1c4:	eb0000f2 	bl	a594 <printk>
    a1c8:	eb0001fa 	bl	a9b8 <clean_reboot>
    a1cc:	e59f3068 	ldr	r3, [pc, #104]	; a23c <kmalloc_notzero+0xe0>
    a1d0:	e58d3000 	str	r3, [sp]
    a1d4:	e3a03044 	mov	r3, #68, 0	; 0x44
    a1d8:	e59f2050 	ldr	r2, [pc, #80]	; a230 <kmalloc_notzero+0xd4>
    a1dc:	e59f1050 	ldr	r1, [pc, #80]	; a234 <kmalloc_notzero+0xd8>
    a1e0:	e59f0050 	ldr	r0, [pc, #80]	; a238 <kmalloc_notzero+0xdc>
    a1e4:	eb0000ea 	bl	a594 <printk>
    a1e8:	eb0001f2 	bl	a9b8 <clean_reboot>
    a1ec:	e3a03048 	mov	r3, #72, 0	; 0x48
    a1f0:	e59f2038 	ldr	r2, [pc, #56]	; a230 <kmalloc_notzero+0xd4>
    a1f4:	e59f1038 	ldr	r1, [pc, #56]	; a234 <kmalloc_notzero+0xd8>
    a1f8:	e59f0040 	ldr	r0, [pc, #64]	; a240 <kmalloc_notzero+0xe4>
    a1fc:	eb0000e4 	bl	a594 <printk>
    a200:	eb0001ec 	bl	a9b8 <clean_reboot>
    a204:	e0422001 	sub	r2, r2, r1
    a208:	e58d2004 	str	r2, [sp, #4]
    a20c:	e58d3000 	str	r3, [sp]
    a210:	e3a0304c 	mov	r3, #76, 0	; 0x4c
    a214:	e59f2014 	ldr	r2, [pc, #20]	; a230 <kmalloc_notzero+0xd4>
    a218:	e59f1014 	ldr	r1, [pc, #20]	; a234 <kmalloc_notzero+0xd8>
    a21c:	e59f0020 	ldr	r0, [pc, #32]	; a244 <kmalloc_notzero+0xe8>
    a220:	eb0000db 	bl	a594 <printk>
    a224:	eb0001e3 	bl	a9b8 <clean_reboot>
    a228:	0006c054 	.word	0x0006c054
    a22c:	0000bc4c 	.word	0x0000bc4c
    a230:	0000be3c 	.word	0x0000be3c
    a234:	0000bc14 	.word	0x0000bc14
    a238:	0000af00 	.word	0x0000af00
    a23c:	0000bce4 	.word	0x0000bce4
    a240:	0000bcfc 	.word	0x0000bcfc
    a244:	0000bd28 	.word	0x0000bd28

0000a248 <kmalloc>:
    a248:	e92d4030 	push	{r4, r5, lr}
    a24c:	e24dd00c 	sub	sp, sp, #12, 0
    a250:	e2504000 	subs	r4, r0, #0, 0
    a254:	0a000008 	beq	a27c <kmalloc+0x34>
    a258:	e1a00004 	mov	r0, r4
    a25c:	ebffffbe 	bl	a15c <kmalloc_notzero>
    a260:	e1a05000 	mov	r5, r0
    a264:	e1a02004 	mov	r2, r4
    a268:	e3a01000 	mov	r1, #0, 0
    a26c:	eb0000a0 	bl	a4f4 <memset>
    a270:	e1a00005 	mov	r0, r5
    a274:	e28dd00c 	add	sp, sp, #12, 0
    a278:	e8bd8030 	pop	{r4, r5, pc}
    a27c:	e59f3018 	ldr	r3, [pc, #24]	; a29c <kmalloc+0x54>
    a280:	e58d3000 	str	r3, [sp]
    a284:	e3a03054 	mov	r3, #84, 0	; 0x54
    a288:	e59f2010 	ldr	r2, [pc, #16]	; a2a0 <kmalloc+0x58>
    a28c:	e59f1010 	ldr	r1, [pc, #16]	; a2a4 <kmalloc+0x5c>
    a290:	e59f0010 	ldr	r0, [pc, #16]	; a2a8 <kmalloc+0x60>
    a294:	eb0000be 	bl	a594 <printk>
    a298:	eb0001c6 	bl	a9b8 <clean_reboot>
    a29c:	0000bc4c 	.word	0x0000bc4c
    a2a0:	0000be4c 	.word	0x0000be4c
    a2a4:	0000bc14 	.word	0x0000bc14
    a2a8:	0000af00 	.word	0x0000af00

0000a2ac <kmalloc_aligned>:
    a2ac:	e52de004 	push	{lr}		; (str lr, [sp, #-4]!)
    a2b0:	e24dd00c 	sub	sp, sp, #12, 0
    a2b4:	e3500000 	cmp	r0, #0, 0
    a2b8:	0a000014 	beq	a310 <kmalloc_aligned+0x64>
    a2bc:	e2613000 	rsb	r3, r1, #0, 0
    a2c0:	e1d13003 	bics	r3, r1, r3
    a2c4:	1a000019 	bne	a330 <kmalloc_aligned+0x84>
    a2c8:	e3510008 	cmp	r1, #8, 0
    a2cc:	33a01008 	movcc	r1, #8, 0
    a2d0:	e59f30b8 	ldr	r3, [pc, #184]	; a390 <kmalloc_aligned+0xe4>
    a2d4:	e5932008 	ldr	r2, [r3, #8]
    a2d8:	e2613000 	rsb	r3, r1, #0, 0
    a2dc:	e1d1c003 	bics	ip, r1, r3
    a2e0:	1a00001a 	bne	a350 <kmalloc_aligned+0xa4>
    a2e4:	e0822001 	add	r2, r2, r1
    a2e8:	e2422001 	sub	r2, r2, #1, 0
    a2ec:	e0033002 	and	r3, r3, r2
    a2f0:	e2411001 	sub	r1, r1, #1, 0
    a2f4:	e1110003 	tst	r1, r3
    a2f8:	1a00001c 	bne	a370 <kmalloc_aligned+0xc4>
    a2fc:	e59f208c 	ldr	r2, [pc, #140]	; a390 <kmalloc_aligned+0xe4>
    a300:	e5823008 	str	r3, [r2, #8]
    a304:	ebffffcf 	bl	a248 <kmalloc>
    a308:	e28dd00c 	add	sp, sp, #12, 0
    a30c:	e49df004 	pop	{pc}		; (ldr pc, [sp], #4)
    a310:	e59f307c 	ldr	r3, [pc, #124]	; a394 <kmalloc_aligned+0xe8>
    a314:	e58d3000 	str	r3, [sp]
    a318:	e3a0305e 	mov	r3, #94, 0	; 0x5e
    a31c:	e59f2074 	ldr	r2, [pc, #116]	; a398 <kmalloc_aligned+0xec>
    a320:	e59f1074 	ldr	r1, [pc, #116]	; a39c <kmalloc_aligned+0xf0>
    a324:	e59f0074 	ldr	r0, [pc, #116]	; a3a0 <kmalloc_aligned+0xf4>
    a328:	eb000099 	bl	a594 <printk>
    a32c:	eb0001a1 	bl	a9b8 <clean_reboot>
    a330:	e59f306c 	ldr	r3, [pc, #108]	; a3a4 <kmalloc_aligned+0xf8>
    a334:	e58d3000 	str	r3, [sp]
    a338:	e3a0305f 	mov	r3, #95, 0	; 0x5f
    a33c:	e59f2054 	ldr	r2, [pc, #84]	; a398 <kmalloc_aligned+0xec>
    a340:	e59f1054 	ldr	r1, [pc, #84]	; a39c <kmalloc_aligned+0xf0>
    a344:	e59f005c 	ldr	r0, [pc, #92]	; a3a8 <kmalloc_aligned+0xfc>
    a348:	eb000091 	bl	a594 <printk>
    a34c:	eb000199 	bl	a9b8 <clean_reboot>
    a350:	e59f3054 	ldr	r3, [pc, #84]	; a3ac <kmalloc_aligned+0x100>
    a354:	e58d3000 	str	r3, [sp]
    a358:	e3a03011 	mov	r3, #17, 0
    a35c:	e59f204c 	ldr	r2, [pc, #76]	; a3b0 <kmalloc_aligned+0x104>
    a360:	e59f1034 	ldr	r1, [pc, #52]	; a39c <kmalloc_aligned+0xf0>
    a364:	e59f0034 	ldr	r0, [pc, #52]	; a3a0 <kmalloc_aligned+0xf4>
    a368:	eb000089 	bl	a594 <printk>
    a36c:	eb000191 	bl	a9b8 <clean_reboot>
    a370:	e59f303c 	ldr	r3, [pc, #60]	; a3b4 <kmalloc_aligned+0x108>
    a374:	e58d3000 	str	r3, [sp]
    a378:	e3a03066 	mov	r3, #102, 0	; 0x66
    a37c:	e59f2014 	ldr	r2, [pc, #20]	; a398 <kmalloc_aligned+0xec>
    a380:	e59f1014 	ldr	r1, [pc, #20]	; a39c <kmalloc_aligned+0xf0>
    a384:	e59f002c 	ldr	r0, [pc, #44]	; a3b8 <kmalloc_aligned+0x10c>
    a388:	eb000081 	bl	a594 <printk>
    a38c:	eb000189 	bl	a9b8 <clean_reboot>
    a390:	0006c054 	.word	0x0006c054
    a394:	0000bc4c 	.word	0x0000bc4c
    a398:	0000be54 	.word	0x0000be54
    a39c:	0000bc14 	.word	0x0000bc14
    a3a0:	0000af00 	.word	0x0000af00
    a3a4:	0000bdb0 	.word	0x0000bdb0
    a3a8:	0000bd70 	.word	0x0000bd70
    a3ac:	0000bdc4 	.word	0x0000bdc4
    a3b0:	0000be64 	.word	0x0000be64
    a3b4:	0000be08 	.word	0x0000be08
    a3b8:	0000bdd0 	.word	0x0000bdd0

0000a3bc <kfree_all>:
    a3bc:	e59f3008 	ldr	r3, [pc, #8]	; a3cc <kfree_all+0x10>
    a3c0:	e5932004 	ldr	r2, [r3, #4]
    a3c4:	e5832008 	str	r2, [r3, #8]
    a3c8:	e12fff1e 	bx	lr
    a3cc:	0006c054 	.word	0x0006c054

0000a3d0 <memcpy256>:
    a3d0:	e92d40f0 	push	{r4, r5, r6, r7, lr}
    a3d4:	e24dd00c 	sub	sp, sp, #12, 0
    a3d8:	e212401f 	ands	r4, r2, #31, 0
    a3dc:	01a06000 	moveq	r6, r0
    a3e0:	01a07001 	moveq	r7, r1
    a3e4:	01a052a2 	lsreq	r5, r2, #5
    a3e8:	0a00000f 	beq	a42c <memcpy256+0x5c>
    a3ec:	e3a03020 	mov	r3, #32, 0
    a3f0:	e58d3004 	str	r3, [sp, #4]
    a3f4:	e58d2000 	str	r2, [sp]
    a3f8:	e3a0300f 	mov	r3, #15, 0
    a3fc:	e59f2038 	ldr	r2, [pc, #56]	; a43c <memcpy256+0x6c>
    a400:	e59f1038 	ldr	r1, [pc, #56]	; a440 <memcpy256+0x70>
    a404:	e59f0038 	ldr	r0, [pc, #56]	; a444 <memcpy256+0x74>
    a408:	eb000061 	bl	a594 <printk>
    a40c:	eb000169 	bl	a9b8 <clean_reboot>
    a410:	e086c284 	add	ip, r6, r4, lsl #5
    a414:	e087e284 	add	lr, r7, r4, lsl #5
    a418:	e8be000f 	ldm	lr!, {r0, r1, r2, r3}
    a41c:	e8ac000f 	stmia	ip!, {r0, r1, r2, r3}
    a420:	e89e000f 	ldm	lr, {r0, r1, r2, r3}
    a424:	e88c000f 	stm	ip, {r0, r1, r2, r3}
    a428:	e2844001 	add	r4, r4, #1, 0
    a42c:	e1540005 	cmp	r4, r5
    a430:	3afffff6 	bcc	a410 <memcpy256+0x40>
    a434:	e28dd00c 	add	sp, sp, #12, 0
    a438:	e8bd80f0 	pop	{r4, r5, r6, r7, pc}
    a43c:	0000beb8 	.word	0x0000beb8
    a440:	0000be6c 	.word	0x0000be6c
    a444:	0000be7c 	.word	0x0000be7c

0000a448 <memcpy>:
    a448:	e3100007 	tst	r0, #7, 0
    a44c:	1a00000f 	bne	a490 <memcpy+0x48>
    a450:	e3110007 	tst	r1, #7, 0
    a454:	1a00000d 	bne	a490 <memcpy+0x48>
    a458:	e2123007 	ands	r3, r2, #7, 0
    a45c:	1a00000b 	bne	a490 <memcpy+0x48>
    a460:	e1a021a2 	lsr	r2, r2, #3
    a464:	e1530002 	cmp	r3, r2
    a468:	212fff1e 	bxcs	lr
    a46c:	e92d0030 	push	{r4, r5}
    a470:	e1a0c183 	lsl	ip, r3, #3
    a474:	e18140dc 	ldrd	r4, [r1, ip]
    a478:	e18040fc 	strd	r4, [r0, ip]
    a47c:	e2833001 	add	r3, r3, #1, 0
    a480:	e1530002 	cmp	r3, r2
    a484:	3afffff9 	bcc	a470 <memcpy+0x28>
    a488:	e8bd0030 	pop	{r4, r5}
    a48c:	e12fff1e 	bx	lr
    a490:	e2103003 	ands	r3, r0, #3, 0
    a494:	1a000011 	bne	a4e0 <memcpy+0x98>
    a498:	e211c003 	ands	ip, r1, #3, 0
    a49c:	1a00000c 	bne	a4d4 <memcpy+0x8c>
    a4a0:	e2123003 	ands	r3, r2, #3, 0
    a4a4:	1a00000f 	bne	a4e8 <memcpy+0xa0>
    a4a8:	e1a02122 	lsr	r2, r2, #2
    a4ac:	ea000002 	b	a4bc <memcpy+0x74>
    a4b0:	e791c103 	ldr	ip, [r1, r3, lsl #2]
    a4b4:	e780c103 	str	ip, [r0, r3, lsl #2]
    a4b8:	e2833001 	add	r3, r3, #1, 0
    a4bc:	e1530002 	cmp	r3, r2
    a4c0:	3afffffa 	bcc	a4b0 <memcpy+0x68>
    a4c4:	e12fff1e 	bx	lr
    a4c8:	e7d1c003 	ldrb	ip, [r1, r3]
    a4cc:	e7c0c003 	strb	ip, [r0, r3]
    a4d0:	e2833001 	add	r3, r3, #1, 0
    a4d4:	e1530002 	cmp	r3, r2
    a4d8:	3afffffa 	bcc	a4c8 <memcpy+0x80>
    a4dc:	e12fff1e 	bx	lr
    a4e0:	e3a03000 	mov	r3, #0, 0
    a4e4:	eafffffa 	b	a4d4 <memcpy+0x8c>
    a4e8:	e1a0300c 	mov	r3, ip
    a4ec:	eafffff8 	b	a4d4 <memcpy+0x8c>

0000a4f0 <memcpy_end>:
    a4f0:	e12fff1e 	bx	lr

0000a4f4 <memset>:
    a4f4:	e3520000 	cmp	r2, #0, 0
    a4f8:	012fff1e 	bxeq	lr
    a4fc:	e3510000 	cmp	r1, #0, 0
    a500:	1a000007 	bne	a524 <memset+0x30>
    a504:	e3100007 	tst	r0, #7, 0
    a508:	1a000001 	bne	a514 <memset+0x20>
    a50c:	e3120007 	tst	r2, #7, 0
    a510:	0a000011 	beq	a55c <memset+0x68>
    a514:	e3100003 	tst	r0, #3, 0
    a518:	1a000001 	bne	a524 <memset+0x30>
    a51c:	e3120003 	tst	r2, #3, 0
    a520:	0a000001 	beq	a52c <memset+0x38>
    a524:	e0802002 	add	r2, r0, r2
    a528:	ea000008 	b	a550 <memset+0x5c>
    a52c:	e1a02122 	lsr	r2, r2, #2
    a530:	ea000001 	b	a53c <memset+0x48>
    a534:	e4801004 	str	r1, [r0], #4
    a538:	e1a02003 	mov	r2, r3
    a53c:	e2423001 	sub	r3, r2, #1, 0
    a540:	e3520000 	cmp	r2, #0, 0
    a544:	1afffffa 	bne	a534 <memset+0x40>
    a548:	e12fff1e 	bx	lr
    a54c:	e4c01001 	strb	r1, [r0], #1
    a550:	e1500002 	cmp	r0, r2
    a554:	3afffffc 	bcc	a54c <memset+0x58>
    a558:	e12fff1e 	bx	lr
    a55c:	e1a021a2 	lsr	r2, r2, #3
    a560:	e2423001 	sub	r3, r2, #1, 0
    a564:	e3520000 	cmp	r2, #0, 0
    a568:	012fff1e 	bxeq	lr
    a56c:	e92d0030 	push	{r4, r5}
    a570:	e1a04001 	mov	r4, r1
    a574:	e1a05fc1 	asr	r5, r1, #31
    a578:	e0c040f8 	strd	r4, [r0], #8
    a57c:	e1a02003 	mov	r2, r3
    a580:	e2433001 	sub	r3, r3, #1, 0
    a584:	e3520000 	cmp	r2, #0, 0
    a588:	1afffff8 	bne	a570 <memset+0x7c>
    a58c:	e8bd0030 	pop	{r4, r5}
    a590:	e12fff1e 	bx	lr

0000a594 <printk>:
    a594:	e92d000f 	push	{r0, r1, r2, r3}
    a598:	e52de004 	push	{lr}		; (str lr, [sp, #-4]!)
    a59c:	e24dd00c 	sub	sp, sp, #12, 0
    a5a0:	e28d1014 	add	r1, sp, #20, 0
    a5a4:	e58d1004 	str	r1, [sp, #4]
    a5a8:	e59d0010 	ldr	r0, [sp, #16]
    a5ac:	eb000047 	bl	a6d0 <vprintk>
    a5b0:	e28dd00c 	add	sp, sp, #12, 0
    a5b4:	e49de004 	pop	{lr}		; (ldr lr, [sp], #4)
    a5b8:	e28dd010 	add	sp, sp, #16, 0
    a5bc:	e12fff1e 	bx	lr

0000a5c0 <emit_val>:
    a5c0:	e92d4010 	push	{r4, lr}
    a5c4:	e24dd030 	sub	sp, sp, #48, 0	; 0x30
    a5c8:	e350000a 	cmp	r0, #10, 0
    a5cc:	0a000014 	beq	a624 <emit_val+0x64>
    a5d0:	e3500010 	cmp	r0, #16, 0
    a5d4:	0a000022 	beq	a664 <emit_val+0xa4>
    a5d8:	e3500002 	cmp	r0, #2, 0
    a5dc:	0a000006 	beq	a5fc <emit_val+0x3c>
    a5e0:	e58d0000 	str	r0, [sp]
    a5e4:	e3a0301b 	mov	r3, #27, 0
    a5e8:	e59f20c0 	ldr	r2, [pc, #192]	; a6b0 <emit_val+0xf0>
    a5ec:	e59f10c0 	ldr	r1, [pc, #192]	; a6b4 <emit_val+0xf4>
    a5f0:	e59f00c0 	ldr	r0, [pc, #192]	; a6b8 <emit_val+0xf8>
    a5f4:	ebffffe6 	bl	a594 <printk>
    a5f8:	eb0000ee 	bl	a9b8 <clean_reboot>
    a5fc:	e28d400c 	add	r4, sp, #12, 0
    a600:	e2012001 	and	r2, r1, #1, 0
    a604:	e59f00b0 	ldr	r0, [pc, #176]	; a6bc <emit_val+0xfc>
    a608:	e7d02002 	ldrb	r2, [r0, r2]
    a60c:	e5c42000 	strb	r2, [r4]
    a610:	e2844001 	add	r4, r4, #1, 0
    a614:	e3510001 	cmp	r1, #1, 0
    a618:	e1a010a1 	lsr	r1, r1, #1
    a61c:	8afffff7 	bhi	a600 <emit_val+0x40>
    a620:	ea00001d 	b	a69c <emit_val+0xdc>
    a624:	e28d400c 	add	r4, sp, #12, 0
    a628:	e59f3090 	ldr	r3, [pc, #144]	; a6c0 <emit_val+0x100>
    a62c:	e0832193 	umull	r2, r3, r3, r1
    a630:	e1a031a3 	lsr	r3, r3, #3
    a634:	e1a00003 	mov	r0, r3
    a638:	e0833103 	add	r3, r3, r3, lsl #2
    a63c:	e0413083 	sub	r3, r1, r3, lsl #1
    a640:	e59fc07c 	ldr	ip, [pc, #124]	; a6c4 <emit_val+0x104>
    a644:	e7dcc003 	ldrb	ip, [ip, r3]
    a648:	e5c4c000 	strb	ip, [r4]
    a64c:	e2844001 	add	r4, r4, #1, 0
    a650:	e1a03001 	mov	r3, r1
    a654:	e1a01000 	mov	r1, r0
    a658:	e3530009 	cmp	r3, #9, 0
    a65c:	8afffff1 	bhi	a628 <emit_val+0x68>
    a660:	ea00000d 	b	a69c <emit_val+0xdc>
    a664:	e28d400c 	add	r4, sp, #12, 0
    a668:	e201200f 	and	r2, r1, #15, 0
    a66c:	e59f0054 	ldr	r0, [pc, #84]	; a6c8 <emit_val+0x108>
    a670:	e7d02002 	ldrb	r2, [r0, r2]
    a674:	e5c42000 	strb	r2, [r4]
    a678:	e2844001 	add	r4, r4, #1, 0
    a67c:	e351000f 	cmp	r1, #15, 0
    a680:	e1a01221 	lsr	r1, r1, #4
    a684:	8afffff7 	bhi	a668 <emit_val+0xa8>
    a688:	ea000003 	b	a69c <emit_val+0xdc>
    a68c:	e59f3038 	ldr	r3, [pc, #56]	; a6cc <emit_val+0x10c>
    a690:	e5933000 	ldr	r3, [r3]
    a694:	e5740001 	ldrb	r0, [r4, #-1]!
    a698:	e12fff33 	blx	r3
    a69c:	e28d300c 	add	r3, sp, #12, 0
    a6a0:	e1540003 	cmp	r4, r3
    a6a4:	8afffff8 	bhi	a68c <emit_val+0xcc>
    a6a8:	e28dd030 	add	sp, sp, #48, 0	; 0x30
    a6ac:	e8bd8010 	pop	{r4, pc}
    a6b0:	0000bf7c 	.word	0x0000bf7c
    a6b4:	0000bec4 	.word	0x0000bec4
    a6b8:	0000bed4 	.word	0x0000bed4
    a6bc:	0000bef8 	.word	0x0000bef8
    a6c0:	cccccccd 	.word	0xcccccccd
    a6c4:	0000befc 	.word	0x0000befc
    a6c8:	0000bf08 	.word	0x0000bf08
    a6cc:	0000c04c 	.word	0x0000c04c

0000a6d0 <vprintk>:
    a6d0:	e92d4030 	push	{r4, r5, lr}
    a6d4:	e24dd014 	sub	sp, sp, #20, 0
    a6d8:	e1a04000 	mov	r4, r0
    a6dc:	e58d100c 	str	r1, [sp, #12]
    a6e0:	ea000003 	b	a6f4 <vprintk+0x24>
    a6e4:	e59f3288 	ldr	r3, [pc, #648]	; a974 <vprintk+0x2a4>
    a6e8:	e5933000 	ldr	r3, [r3]
    a6ec:	e12fff33 	blx	r3
    a6f0:	e2844001 	add	r4, r4, #1, 0
    a6f4:	e5d40000 	ldrb	r0, [r4]
    a6f8:	e3500000 	cmp	r0, #0, 0
    a6fc:	0a00009a 	beq	a96c <vprintk+0x29c>
    a700:	e3500025 	cmp	r0, #37, 0	; 0x25
    a704:	1afffff6 	bne	a6e4 <vprintk+0x14>
    a708:	e2845001 	add	r5, r4, #1, 0
    a70c:	e5d42001 	ldrb	r2, [r4, #1]
    a710:	e2423062 	sub	r3, r2, #98, 0	; 0x62
    a714:	e3530016 	cmp	r3, #22, 0
    a718:	979ff103 	ldrls	pc, [pc, r3, lsl #2]
    a71c:	ea00008b 	b	a950 <vprintk+0x280>
    a720:	0000a77c 	.word	0x0000a77c
    a724:	0000a7bc 	.word	0x0000a7bc
    a728:	0000a8d4 	.word	0x0000a8d4
    a72c:	0000a950 	.word	0x0000a950
    a730:	0000a950 	.word	0x0000a950
    a734:	0000a950 	.word	0x0000a950
    a738:	0000a950 	.word	0x0000a950
    a73c:	0000a950 	.word	0x0000a950
    a740:	0000a950 	.word	0x0000a950
    a744:	0000a950 	.word	0x0000a950
    a748:	0000a7e0 	.word	0x0000a7e0
    a74c:	0000a950 	.word	0x0000a950
    a750:	0000a950 	.word	0x0000a950
    a754:	0000a950 	.word	0x0000a950
    a758:	0000a898 	.word	0x0000a898
    a75c:	0000a950 	.word	0x0000a950
    a760:	0000a950 	.word	0x0000a950
    a764:	0000a918 	.word	0x0000a918
    a768:	0000a950 	.word	0x0000a950
    a76c:	0000a79c 	.word	0x0000a79c
    a770:	0000a950 	.word	0x0000a950
    a774:	0000a950 	.word	0x0000a950
    a778:	0000a898 	.word	0x0000a898
    a77c:	e59d300c 	ldr	r3, [sp, #12]
    a780:	e2832004 	add	r2, r3, #4, 0
    a784:	e58d200c 	str	r2, [sp, #12]
    a788:	e5931000 	ldr	r1, [r3]
    a78c:	e3a00002 	mov	r0, #2, 0
    a790:	ebffff8a 	bl	a5c0 <emit_val>
    a794:	e1a04005 	mov	r4, r5
    a798:	eaffffd4 	b	a6f0 <vprintk+0x20>
    a79c:	e59d300c 	ldr	r3, [sp, #12]
    a7a0:	e2832004 	add	r2, r3, #4, 0
    a7a4:	e58d200c 	str	r2, [sp, #12]
    a7a8:	e5931000 	ldr	r1, [r3]
    a7ac:	e3a0000a 	mov	r0, #10, 0
    a7b0:	ebffff82 	bl	a5c0 <emit_val>
    a7b4:	e1a04005 	mov	r4, r5
    a7b8:	eaffffcc 	b	a6f0 <vprintk+0x20>
    a7bc:	e59f31b0 	ldr	r3, [pc, #432]	; a974 <vprintk+0x2a4>
    a7c0:	e5932000 	ldr	r2, [r3]
    a7c4:	e59d300c 	ldr	r3, [sp, #12]
    a7c8:	e2831004 	add	r1, r3, #4, 0
    a7cc:	e58d100c 	str	r1, [sp, #12]
    a7d0:	e5930000 	ldr	r0, [r3]
    a7d4:	e12fff32 	blx	r2
    a7d8:	e1a04005 	mov	r4, r5
    a7dc:	eaffffc3 	b	a6f0 <vprintk+0x20>
    a7e0:	e2842002 	add	r2, r4, #2, 0
    a7e4:	e5d43002 	ldrb	r3, [r4, #2]
    a7e8:	e353006c 	cmp	r3, #108, 0	; 0x6c
    a7ec:	1a000018 	bne	a854 <vprintk+0x184>
    a7f0:	e2845003 	add	r5, r4, #3, 0
    a7f4:	e5d43003 	ldrb	r3, [r4, #3]
    a7f8:	e3530078 	cmp	r3, #120, 0	; 0x78
    a7fc:	1a00001b 	bne	a870 <vprintk+0x1a0>
    a800:	e59f416c 	ldr	r4, [pc, #364]	; a974 <vprintk+0x2a4>
    a804:	e5943000 	ldr	r3, [r4]
    a808:	e3a00030 	mov	r0, #48, 0	; 0x30
    a80c:	e12fff33 	blx	r3
    a810:	e5943000 	ldr	r3, [r4]
    a814:	e3a00078 	mov	r0, #120, 0	; 0x78
    a818:	e12fff33 	blx	r3
    a81c:	e59d300c 	ldr	r3, [sp, #12]
    a820:	e2833007 	add	r3, r3, #7, 0
    a824:	e3c33007 	bic	r3, r3, #7, 0
    a828:	e2832008 	add	r2, r3, #8, 0
    a82c:	e58d200c 	str	r2, [sp, #12]
    a830:	e5934000 	ldr	r4, [r3]
    a834:	e5931004 	ldr	r1, [r3, #4]
    a838:	e3510000 	cmp	r1, #0, 0
    a83c:	1a000012 	bne	a88c <vprintk+0x1bc>
    a840:	e1a01004 	mov	r1, r4
    a844:	e3a00010 	mov	r0, #16, 0
    a848:	ebffff5c 	bl	a5c0 <emit_val>
    a84c:	e1a04005 	mov	r4, r5
    a850:	eaffffa6 	b	a6f0 <vprintk+0x20>
    a854:	e58d2000 	str	r2, [sp]
    a858:	e3a0303b 	mov	r3, #59, 0	; 0x3b
    a85c:	e59f2114 	ldr	r2, [pc, #276]	; a978 <vprintk+0x2a8>
    a860:	e59f1114 	ldr	r1, [pc, #276]	; a97c <vprintk+0x2ac>
    a864:	e59f0114 	ldr	r0, [pc, #276]	; a980 <vprintk+0x2b0>
    a868:	ebffff49 	bl	a594 <printk>
    a86c:	eb000051 	bl	a9b8 <clean_reboot>
    a870:	e58d5000 	str	r5, [sp]
    a874:	e3a0303e 	mov	r3, #62, 0	; 0x3e
    a878:	e59f20f8 	ldr	r2, [pc, #248]	; a978 <vprintk+0x2a8>
    a87c:	e59f10f8 	ldr	r1, [pc, #248]	; a97c <vprintk+0x2ac>
    a880:	e59f00f8 	ldr	r0, [pc, #248]	; a980 <vprintk+0x2b0>
    a884:	ebffff42 	bl	a594 <printk>
    a888:	eb00004a 	bl	a9b8 <clean_reboot>
    a88c:	e3a00010 	mov	r0, #16, 0
    a890:	ebffff4a 	bl	a5c0 <emit_val>
    a894:	eaffffe9 	b	a840 <vprintk+0x170>
    a898:	e59f40d4 	ldr	r4, [pc, #212]	; a974 <vprintk+0x2a4>
    a89c:	e5943000 	ldr	r3, [r4]
    a8a0:	e3a00030 	mov	r0, #48, 0	; 0x30
    a8a4:	e12fff33 	blx	r3
    a8a8:	e5943000 	ldr	r3, [r4]
    a8ac:	e3a00078 	mov	r0, #120, 0	; 0x78
    a8b0:	e12fff33 	blx	r3
    a8b4:	e59d300c 	ldr	r3, [sp, #12]
    a8b8:	e2832004 	add	r2, r3, #4, 0
    a8bc:	e58d200c 	str	r2, [sp, #12]
    a8c0:	e5931000 	ldr	r1, [r3]
    a8c4:	e3a00010 	mov	r0, #16, 0
    a8c8:	ebffff3c 	bl	a5c0 <emit_val>
    a8cc:	e1a04005 	mov	r4, r5
    a8d0:	eaffff86 	b	a6f0 <vprintk+0x20>
    a8d4:	e59d300c 	ldr	r3, [sp, #12]
    a8d8:	e2832004 	add	r2, r3, #4, 0
    a8dc:	e58d200c 	str	r2, [sp, #12]
    a8e0:	e5934000 	ldr	r4, [r3]
    a8e4:	e3540000 	cmp	r4, #0, 0
    a8e8:	ba000004 	blt	a900 <vprintk+0x230>
    a8ec:	e1a01004 	mov	r1, r4
    a8f0:	e3a0000a 	mov	r0, #10, 0
    a8f4:	ebffff31 	bl	a5c0 <emit_val>
    a8f8:	e1a04005 	mov	r4, r5
    a8fc:	eaffff7b 	b	a6f0 <vprintk+0x20>
    a900:	e59f306c 	ldr	r3, [pc, #108]	; a974 <vprintk+0x2a4>
    a904:	e5933000 	ldr	r3, [r3]
    a908:	e3a0002d 	mov	r0, #45, 0	; 0x2d
    a90c:	e12fff33 	blx	r3
    a910:	e2644000 	rsb	r4, r4, #0, 0
    a914:	eafffff4 	b	a8ec <vprintk+0x21c>
    a918:	e59d300c 	ldr	r3, [sp, #12]
    a91c:	e2832004 	add	r2, r3, #4, 0
    a920:	e58d200c 	str	r2, [sp, #12]
    a924:	e5934000 	ldr	r4, [r3]
    a928:	e5d40000 	ldrb	r0, [r4]
    a92c:	e3500000 	cmp	r0, #0, 0
    a930:	0a000004 	beq	a948 <vprintk+0x278>
    a934:	e59f3038 	ldr	r3, [pc, #56]	; a974 <vprintk+0x2a4>
    a938:	e5933000 	ldr	r3, [r3]
    a93c:	e12fff33 	blx	r3
    a940:	e2844001 	add	r4, r4, #1, 0
    a944:	eafffff7 	b	a928 <vprintk+0x258>
    a948:	e1a04005 	mov	r4, r5
    a94c:	eaffff67 	b	a6f0 <vprintk+0x20>
    a950:	e58d2000 	str	r2, [sp]
    a954:	e3a03062 	mov	r3, #98, 0	; 0x62
    a958:	e59f2018 	ldr	r2, [pc, #24]	; a978 <vprintk+0x2a8>
    a95c:	e59f1018 	ldr	r1, [pc, #24]	; a97c <vprintk+0x2ac>
    a960:	e59f001c 	ldr	r0, [pc, #28]	; a984 <vprintk+0x2b4>
    a964:	ebffff0a 	bl	a594 <printk>
    a968:	eb000012 	bl	a9b8 <clean_reboot>
    a96c:	e28dd014 	add	sp, sp, #20, 0
    a970:	e8bd8030 	pop	{r4, r5, pc}
    a974:	0000c04c 	.word	0x0000c04c
    a978:	0000bf88 	.word	0x0000bf88
    a97c:	0000bec4 	.word	0x0000bec4
    a980:	0000bf1c 	.word	0x0000bf1c
    a984:	0000bf54 	.word	0x0000bf54

0000a988 <default_putchar>:
    a988:	e92d4010 	push	{r4, lr}
    a98c:	e1a04000 	mov	r4, r0
    a990:	e6ef0070 	uxtb	r0, r0
    a994:	eb0000bd 	bl	ac90 <uart_put8>
    a998:	e1a00004 	mov	r0, r4
    a99c:	e8bd8010 	pop	{r4, pc}

0000a9a0 <rpi_putchar_set>:
    a9a0:	e59f300c 	ldr	r3, [pc, #12]	; a9b4 <rpi_putchar_set+0x14>
    a9a4:	e5932000 	ldr	r2, [r3]
    a9a8:	e5830000 	str	r0, [r3]
    a9ac:	e1a00002 	mov	r0, r2
    a9b0:	e12fff1e 	bx	lr
    a9b4:	0000c04c 	.word	0x0000c04c

0000a9b8 <clean_reboot>:
    a9b8:	e92d4010 	push	{r4, lr}
    a9bc:	e59f0010 	ldr	r0, [pc, #16]	; a9d4 <clean_reboot+0x1c>
    a9c0:	eb0000e4 	bl	ad58 <putk>
    a9c4:	eb0000d3 	bl	ad18 <uart_flush_tx>
    a9c8:	e3a0000a 	mov	r0, #10, 0
    a9cc:	eb00005d 	bl	ab48 <delay_ms>
    a9d0:	eb000039 	bl	aabc <rpi_reboot>
    a9d4:	0000bf90 	.word	0x0000bf90

0000a9d8 <program_end>:
    a9d8:	e59f0000 	ldr	r0, [pc]	; a9e0 <program_end+0x8>
    a9dc:	e12fff1e 	bx	lr
    a9e0:	0006c060 	.word	0x0006c060

0000a9e4 <_cstart>:
    a9e4:	e92d4030 	push	{r4, r5, lr}
    a9e8:	e24dd00c 	sub	sp, sp, #12, 0
    a9ec:	e59f3098 	ldr	r3, [pc, #152]	; aa8c <_cstart+0xa8>
    a9f0:	e59f2098 	ldr	r2, [pc, #152]	; aa90 <_cstart+0xac>
    a9f4:	e1530002 	cmp	r3, r2
    a9f8:	33a02000 	movcc	r2, #0, 0
    a9fc:	34c32001 	strbcc	r2, [r3], #1
    aa00:	3afffffa 	bcc	a9f0 <_cstart+0xc>
    aa04:	eb000064 	bl	ab9c <uart_init>
    aa08:	e3a03001 	mov	r3, #1, 0
    aa0c:	ee0f3f1c 	mcr	15, 0, r3, cr15, cr12, {0}
    aa10:	e3a02a01 	mov	r2, #4096	; 0x1000
    aa14:	e3a01000 	mov	r1, #0, 0
    aa18:	e1a00001 	mov	r0, r1
    aa1c:	ebfffeb4 	bl	a4f4 <memset>
    aa20:	e3a04000 	mov	r4, #0, 0
    aa24:	e1a05004 	mov	r5, r4
    aa28:	ea000005 	b	aa44 <_cstart+0x60>
    aa2c:	e2855001 	add	r5, r5, #1, 0
    aa30:	e5912000 	ldr	r2, [r1]
    aa34:	e1a03005 	mov	r3, r5
    aa38:	e59f0054 	ldr	r0, [pc, #84]	; aa94 <_cstart+0xb0>
    aa3c:	ebfffed4 	bl	a594 <printk>
    aa40:	e2844001 	add	r4, r4, #1, 0
    aa44:	e3540b01 	cmp	r4, #1024	; 0x400
    aa48:	2a000004 	bcs	aa60 <_cstart+0x7c>
    aa4c:	e1a01104 	lsl	r1, r4, #2
    aa50:	e5913000 	ldr	r3, [r1]
    aa54:	e3530000 	cmp	r3, #0, 0
    aa58:	0afffff8 	beq	aa40 <_cstart+0x5c>
    aa5c:	eafffff2 	b	aa2c <_cstart+0x48>
    aa60:	e3550000 	cmp	r5, #0, 0
    aa64:	1a000001 	bne	aa70 <_cstart+0x8c>
    aa68:	ebfff5af 	bl	812c <notmain>
    aa6c:	ebffffd1 	bl	a9b8 <clean_reboot>
    aa70:	e58d5000 	str	r5, [sp]
    aa74:	e3a0301b 	mov	r3, #27, 0
    aa78:	e59f2018 	ldr	r2, [pc, #24]	; aa98 <_cstart+0xb4>
    aa7c:	e59f1018 	ldr	r1, [pc, #24]	; aa9c <_cstart+0xb8>
    aa80:	e59f0018 	ldr	r0, [pc, #24]	; aaa0 <_cstart+0xbc>
    aa84:	ebfffec2 	bl	a594 <printk>
    aa88:	ebffffca 	bl	a9b8 <clean_reboot>
    aa8c:	0000c050 	.word	0x0000c050
    aa90:	0006c060 	.word	0x0006c060
    aa94:	0000bf9c 	.word	0x0000bf9c
    aa98:	0000c03c 	.word	0x0000c03c
    aa9c:	0000bfc8 	.word	0x0000bfc8
    aaa0:	0000c00c 	.word	0x0000c00c

0000aaa4 <dev_barrier>:
    aaa4:	ea000002 	b	aab4 <dsb>

0000aaa8 <dmb>:
    aaa8:	e3a00000 	mov	r0, #0, 0
    aaac:	ee070fba 	mcr	15, 0, r0, cr7, cr10, {5}
    aab0:	e12fff1e 	bx	lr

0000aab4 <dsb>:
    aab4:	ee070f9a 	mcr	15, 0, r0, cr7, cr10, {4}
    aab8:	e12fff1e 	bx	lr

0000aabc <rpi_reboot>:
    aabc:	e92d4010 	push	{r4, lr}
    aac0:	e3a0000a 	mov	r0, #10, 0
    aac4:	eb00001f 	bl	ab48 <delay_ms>
    aac8:	e59f1014 	ldr	r1, [pc, #20]	; aae4 <rpi_reboot+0x28>
    aacc:	e59f0014 	ldr	r0, [pc, #20]	; aae8 <rpi_reboot+0x2c>
    aad0:	ebfff553 	bl	8024 <PUT32>
    aad4:	e59f1010 	ldr	r1, [pc, #16]	; aaec <rpi_reboot+0x30>
    aad8:	e59f0010 	ldr	r0, [pc, #16]	; aaf0 <rpi_reboot+0x34>
    aadc:	ebfff550 	bl	8024 <PUT32>
    aae0:	eafffffe 	b	aae0 <rpi_reboot+0x24>
    aae4:	5a000001 	.word	0x5a000001
    aae8:	20100024 	.word	0x20100024
    aaec:	5a000020 	.word	0x5a000020
    aaf0:	2010001c 	.word	0x2010001c

0000aaf4 <timer_get_usec_raw>:
    aaf4:	e92d4010 	push	{r4, lr}
    aaf8:	e59f0004 	ldr	r0, [pc, #4]	; ab04 <timer_get_usec_raw+0x10>
    aafc:	ebfff54a 	bl	802c <GET32>
    ab00:	e8bd8010 	pop	{r4, pc}
    ab04:	20003004 	.word	0x20003004

0000ab08 <timer_get_usec>:
    ab08:	e92d4010 	push	{r4, lr}
    ab0c:	ebffffe4 	bl	aaa4 <dev_barrier>
    ab10:	ebfffff7 	bl	aaf4 <timer_get_usec_raw>
    ab14:	e1a04000 	mov	r4, r0
    ab18:	ebffffe1 	bl	aaa4 <dev_barrier>
    ab1c:	e1a00004 	mov	r0, r4
    ab20:	e8bd8010 	pop	{r4, pc}

0000ab24 <delay_us>:
    ab24:	e92d4070 	push	{r4, r5, r6, lr}
    ab28:	e1a05000 	mov	r5, r0
    ab2c:	ebfffff5 	bl	ab08 <timer_get_usec>
    ab30:	e1a04000 	mov	r4, r0
    ab34:	ebfffff3 	bl	ab08 <timer_get_usec>
    ab38:	e0400004 	sub	r0, r0, r4
    ab3c:	e1500005 	cmp	r0, r5
    ab40:	3afffffb 	bcc	ab34 <delay_us+0x10>
    ab44:	e8bd8070 	pop	{r4, r5, r6, pc}

0000ab48 <delay_ms>:
    ab48:	e92d4010 	push	{r4, lr}
    ab4c:	e0603280 	rsb	r3, r0, r0, lsl #5
    ab50:	e0800103 	add	r0, r0, r3, lsl #2
    ab54:	e1a00180 	lsl	r0, r0, #3
    ab58:	ebfffff1 	bl	ab24 <delay_us>
    ab5c:	e8bd8010 	pop	{r4, pc}

0000ab60 <delay_sec>:
    ab60:	e92d4010 	push	{r4, lr}
    ab64:	e0603280 	rsb	r3, r0, r0, lsl #5
    ab68:	e0800103 	add	r0, r0, r3, lsl #2
    ab6c:	e1a00180 	lsl	r0, r0, #3
    ab70:	ebfffff4 	bl	ab48 <delay_ms>
    ab74:	e8bd8010 	pop	{r4, pc}

0000ab78 <disable_UART>:
    ab78:	e92d4010 	push	{r4, lr}
    ab7c:	e59f4014 	ldr	r4, [pc, #20]	; ab98 <disable_UART+0x20>
    ab80:	e1a00004 	mov	r0, r4
    ab84:	ebfff528 	bl	802c <GET32>
    ab88:	e2001006 	and	r1, r0, #6, 0
    ab8c:	e1a00004 	mov	r0, r4
    ab90:	ebfff523 	bl	8024 <PUT32>
    ab94:	e8bd8010 	pop	{r4, pc}
    ab98:	20215004 	.word	0x20215004

0000ab9c <uart_init>:
    ab9c:	e92d4010 	push	{r4, lr}
    aba0:	ebffffbf 	bl	aaa4 <dev_barrier>
    aba4:	e3a01002 	mov	r1, #2, 0
    aba8:	e3a0000e 	mov	r0, #14, 0
    abac:	eb0000aa 	bl	ae5c <gpio_set_function>
    abb0:	e3a01002 	mov	r1, #2, 0
    abb4:	e3a0000f 	mov	r0, #15, 0
    abb8:	eb0000a7 	bl	ae5c <gpio_set_function>
    abbc:	ebffffb8 	bl	aaa4 <dev_barrier>
    abc0:	e59f4074 	ldr	r4, [pc, #116]	; ac3c <uart_init+0xa0>
    abc4:	e1a00004 	mov	r0, r4
    abc8:	ebfff517 	bl	802c <GET32>
    abcc:	e3801001 	orr	r1, r0, #1, 0
    abd0:	e1a00004 	mov	r0, r4
    abd4:	ebfff512 	bl	8024 <PUT32>
    abd8:	ebffffb1 	bl	aaa4 <dev_barrier>
    abdc:	e284405c 	add	r4, r4, #92, 0	; 0x5c
    abe0:	e3a01000 	mov	r1, #0, 0
    abe4:	e1a00004 	mov	r0, r4
    abe8:	ebfff50d 	bl	8024 <PUT32>
    abec:	e3a01000 	mov	r1, #0, 0
    abf0:	e59f0048 	ldr	r0, [pc, #72]	; ac40 <uart_init+0xa4>
    abf4:	ebfff50a 	bl	8024 <PUT32>
    abf8:	e3a01006 	mov	r1, #6, 0
    abfc:	e59f0040 	ldr	r0, [pc, #64]	; ac44 <uart_init+0xa8>
    ac00:	ebfff507 	bl	8024 <PUT32>
    ac04:	e3a01003 	mov	r1, #3, 0
    ac08:	e59f0038 	ldr	r0, [pc, #56]	; ac48 <uart_init+0xac>
    ac0c:	ebfff504 	bl	8024 <PUT32>
    ac10:	e3a01000 	mov	r1, #0, 0
    ac14:	e59f0030 	ldr	r0, [pc, #48]	; ac4c <uart_init+0xb0>
    ac18:	ebfff501 	bl	8024 <PUT32>
    ac1c:	e59f102c 	ldr	r1, [pc, #44]	; ac50 <uart_init+0xb4>
    ac20:	e59f002c 	ldr	r0, [pc, #44]	; ac54 <uart_init+0xb8>
    ac24:	ebfff4fe 	bl	8024 <PUT32>
    ac28:	e3a01003 	mov	r1, #3, 0
    ac2c:	e1a00004 	mov	r0, r4
    ac30:	ebfff4fb 	bl	8024 <PUT32>
    ac34:	ebffff9a 	bl	aaa4 <dev_barrier>
    ac38:	e8bd8010 	pop	{r4, pc}
    ac3c:	20215004 	.word	0x20215004
    ac40:	20215044 	.word	0x20215044
    ac44:	20215048 	.word	0x20215048
    ac48:	2021504c 	.word	0x2021504c
    ac4c:	20215050 	.word	0x20215050
    ac50:	0000010e 	.word	0x0000010e
    ac54:	20215068 	.word	0x20215068

0000ac58 <uart_tx_is_empty>:
    ac58:	e92d4010 	push	{r4, lr}
    ac5c:	e59f0008 	ldr	r0, [pc, #8]	; ac6c <uart_tx_is_empty+0x14>
    ac60:	ebfff4f1 	bl	802c <GET32>
    ac64:	e2000040 	and	r0, r0, #64, 0	; 0x40
    ac68:	e8bd8010 	pop	{r4, pc}
    ac6c:	20215054 	.word	0x20215054

0000ac70 <uart_can_put8>:
    ac70:	e92d4010 	push	{r4, lr}
    ac74:	e59f0010 	ldr	r0, [pc, #16]	; ac8c <uart_can_put8+0x1c>
    ac78:	ebfff4eb 	bl	802c <GET32>
    ac7c:	e3100002 	tst	r0, #2, 0
    ac80:	13a00001 	movne	r0, #1, 0
    ac84:	03a00000 	moveq	r0, #0, 0
    ac88:	e8bd8010 	pop	{r4, pc}
    ac8c:	20215064 	.word	0x20215064

0000ac90 <uart_put8>:
    ac90:	e92d4010 	push	{r4, lr}
    ac94:	e1a04000 	mov	r4, r0
    ac98:	ebfffff4 	bl	ac70 <uart_can_put8>
    ac9c:	e3500000 	cmp	r0, #0, 0
    aca0:	0afffffc 	beq	ac98 <uart_put8+0x8>
    aca4:	e1a01004 	mov	r1, r4
    aca8:	e59f0008 	ldr	r0, [pc, #8]	; acb8 <uart_put8+0x28>
    acac:	ebfff4dc 	bl	8024 <PUT32>
    acb0:	e3a00001 	mov	r0, #1, 0
    acb4:	e8bd8010 	pop	{r4, pc}
    acb8:	20215040 	.word	0x20215040

0000acbc <uart_has_data>:
    acbc:	e92d4010 	push	{r4, lr}
    acc0:	e59f0008 	ldr	r0, [pc, #8]	; acd0 <uart_has_data+0x14>
    acc4:	ebfff4d8 	bl	802c <GET32>
    acc8:	e2000001 	and	r0, r0, #1, 0
    accc:	e8bd8010 	pop	{r4, pc}
    acd0:	20215064 	.word	0x20215064

0000acd4 <uart_get8>:
    acd4:	e92d4010 	push	{r4, lr}
    acd8:	ebfffff7 	bl	acbc <uart_has_data>
    acdc:	e3500000 	cmp	r0, #0, 0
    ace0:	0afffffc 	beq	acd8 <uart_get8+0x4>
    ace4:	e59f0008 	ldr	r0, [pc, #8]	; acf4 <uart_get8+0x20>
    ace8:	ebfff4cf 	bl	802c <GET32>
    acec:	e6ef0070 	uxtb	r0, r0
    acf0:	e8bd8010 	pop	{r4, pc}
    acf4:	20215040 	.word	0x20215040

0000acf8 <uart_get8_async>:
    acf8:	e92d4010 	push	{r4, lr}
    acfc:	ebffffee 	bl	acbc <uart_has_data>
    ad00:	e3500000 	cmp	r0, #0, 0
    ad04:	0a000001 	beq	ad10 <uart_get8_async+0x18>
    ad08:	ebfffff1 	bl	acd4 <uart_get8>
    ad0c:	e8bd8010 	pop	{r4, pc}
    ad10:	e3e00000 	mvn	r0, #0, 0
    ad14:	e8bd8010 	pop	{r4, pc}

0000ad18 <uart_flush_tx>:
    ad18:	e92d4010 	push	{r4, lr}
    ad1c:	ebffffcd 	bl	ac58 <uart_tx_is_empty>
    ad20:	e3500000 	cmp	r0, #0, 0
    ad24:	18bd8010 	popne	{r4, pc}
    ad28:	eb000017 	bl	ad8c <rpi_wait>
    ad2c:	eafffffa 	b	ad1c <uart_flush_tx+0x4>

0000ad30 <uart_disable>:
    ad30:	e92d4010 	push	{r4, lr}
    ad34:	ebfffff7 	bl	ad18 <uart_flush_tx>
    ad38:	e3a01000 	mov	r1, #0, 0
    ad3c:	e59f0010 	ldr	r0, [pc, #16]	; ad54 <uart_disable+0x24>
    ad40:	ebfff4b7 	bl	8024 <PUT32>
    ad44:	ebffff56 	bl	aaa4 <dev_barrier>
    ad48:	ebffff8a 	bl	ab78 <disable_UART>
    ad4c:	ebffff54 	bl	aaa4 <dev_barrier>
    ad50:	e8bd8010 	pop	{r4, pc}
    ad54:	20215060 	.word	0x20215060

0000ad58 <putk>:
    ad58:	e92d4010 	push	{r4, lr}
    ad5c:	e1a04000 	mov	r4, r0
    ad60:	e5d40000 	ldrb	r0, [r4]
    ad64:	e3500000 	cmp	r0, #0, 0
    ad68:	0a000004 	beq	ad80 <putk+0x28>
    ad6c:	e59f3014 	ldr	r3, [pc, #20]	; ad88 <putk+0x30>
    ad70:	e5933000 	ldr	r3, [r3]
    ad74:	e12fff33 	blx	r3
    ad78:	e2844001 	add	r4, r4, #1, 0
    ad7c:	eafffff7 	b	ad60 <putk+0x8>
    ad80:	e3a00001 	mov	r0, #1, 0
    ad84:	e8bd8010 	pop	{r4, pc}
    ad88:	0000c04c 	.word	0x0000c04c

0000ad8c <rpi_wait>:
    ad8c:	e12fff1e 	bx	lr

0000ad90 <gpio_set_on>:
    ad90:	e350002f 	cmp	r0, #47, 0	; 0x2f
    ad94:	1350001f 	cmpne	r0, #31, 0
    ad98:	812fff1e 	bxhi	lr
    ad9c:	e92d4010 	push	{r4, lr}
    ada0:	e200201f 	and	r2, r0, #31, 0
    ada4:	e59f3014 	ldr	r3, [pc, #20]	; adc0 <gpio_set_on+0x30>
    ada8:	e08302a0 	add	r0, r3, r0, lsr #5
    adac:	e3a01001 	mov	r1, #1, 0
    adb0:	e1a01211 	lsl	r1, r1, r2
    adb4:	e1a00100 	lsl	r0, r0, #2
    adb8:	ebfff499 	bl	8024 <PUT32>
    adbc:	e8bd8010 	pop	{r4, pc}
    adc0:	08080007 	.word	0x08080007

0000adc4 <gpio_set_off>:
    adc4:	e350002f 	cmp	r0, #47, 0	; 0x2f
    adc8:	1350001f 	cmpne	r0, #31, 0
    adcc:	812fff1e 	bxhi	lr
    add0:	e92d4010 	push	{r4, lr}
    add4:	e200201f 	and	r2, r0, #31, 0
    add8:	e59f3014 	ldr	r3, [pc, #20]	; adf4 <gpio_set_off+0x30>
    addc:	e08302a0 	add	r0, r3, r0, lsr #5
    ade0:	e3a01001 	mov	r1, #1, 0
    ade4:	e1a01211 	lsl	r1, r1, r2
    ade8:	e1a00100 	lsl	r0, r0, #2
    adec:	ebfff48c 	bl	8024 <PUT32>
    adf0:	e8bd8010 	pop	{r4, pc}
    adf4:	0808000a 	.word	0x0808000a

0000adf8 <gpio_write>:
    adf8:	e350002f 	cmp	r0, #47, 0	; 0x2f
    adfc:	1350001f 	cmpne	r0, #31, 0
    ae00:	812fff1e 	bxhi	lr
    ae04:	e92d4010 	push	{r4, lr}
    ae08:	e3510000 	cmp	r1, #0, 0
    ae0c:	0a000001 	beq	ae18 <gpio_write+0x20>
    ae10:	ebffffde 	bl	ad90 <gpio_set_on>
    ae14:	e8bd8010 	pop	{r4, pc}
    ae18:	ebffffe9 	bl	adc4 <gpio_set_off>
    ae1c:	e8bd8010 	pop	{r4, pc}

0000ae20 <gpio_read>:
    ae20:	e350001f 	cmp	r0, #31, 0
    ae24:	8a000009 	bhi	ae50 <gpio_read+0x30>
    ae28:	e92d4010 	push	{r4, lr}
    ae2c:	e200401f 	and	r4, r0, #31, 0
    ae30:	e59f3020 	ldr	r3, [pc, #32]	; ae58 <gpio_read+0x38>
    ae34:	e08302a0 	add	r0, r3, r0, lsr #5
    ae38:	e1a00100 	lsl	r0, r0, #2
    ae3c:	ebfff47a 	bl	802c <GET32>
    ae40:	e3a03001 	mov	r3, #1, 0
    ae44:	e0000413 	and	r0, r0, r3, lsl r4
    ae48:	e1a00430 	lsr	r0, r0, r4
    ae4c:	e8bd8010 	pop	{r4, pc}
    ae50:	e3e00000 	mvn	r0, #0, 0
    ae54:	e12fff1e 	bx	lr
    ae58:	0808000d 	.word	0x0808000d

0000ae5c <gpio_set_function>:
    ae5c:	e350002f 	cmp	r0, #47, 0	; 0x2f
    ae60:	1350001f 	cmpne	r0, #31, 0
    ae64:	812fff1e 	bxhi	lr
    ae68:	e92d41f0 	push	{r4, r5, r6, r7, r8, lr}
    ae6c:	e1a04000 	mov	r4, r0
    ae70:	e1a05001 	mov	r5, r1
    ae74:	e3510007 	cmp	r1, #7, 0
    ae78:	88bd81f0 	pophi	{r4, r5, r6, r7, r8, pc}
    ae7c:	e59f603c 	ldr	r6, [pc, #60]	; aec0 <gpio_set_function+0x64>
    ae80:	e0863096 	umull	r3, r6, r6, r0
    ae84:	e1a061a6 	lsr	r6, r6, #3
    ae88:	e2867302 	add	r7, r6, #134217728	; 0x8000000
    ae8c:	e2877702 	add	r7, r7, #524288	; 0x80000
    ae90:	e1a07107 	lsl	r7, r7, #2
    ae94:	e1a00007 	mov	r0, r7
    ae98:	ebfff463 	bl	802c <GET32>
    ae9c:	e0866106 	add	r6, r6, r6, lsl #2
    aea0:	e0444086 	sub	r4, r4, r6, lsl #1
    aea4:	e0844084 	add	r4, r4, r4, lsl #1
    aea8:	e3a01007 	mov	r1, #7, 0
    aeac:	e1c01411 	bic	r1, r0, r1, lsl r4
    aeb0:	e1811415 	orr	r1, r1, r5, lsl r4
    aeb4:	e1a00007 	mov	r0, r7
    aeb8:	ebfff459 	bl	8024 <PUT32>
    aebc:	e8bd81f0 	pop	{r4, r5, r6, r7, r8, pc}
    aec0:	cccccccd 	.word	0xcccccccd

0000aec4 <gpio_set_output>:
    aec4:	e92d4010 	push	{r4, lr}
    aec8:	e3a01001 	mov	r1, #1, 0
    aecc:	ebffffe2 	bl	ae5c <gpio_set_function>
    aed0:	e8bd8010 	pop	{r4, pc}

0000aed4 <gpio_set_input>:
    aed4:	e92d4010 	push	{r4, lr}
    aed8:	e3a01000 	mov	r1, #0, 0
    aedc:	ebffffde 	bl	ae5c <gpio_set_function>
    aee0:	e8bd8010 	pop	{r4, pc}

0000aee4 <__code_end__>:
    aee4:	00000000 	andeq	r0, r0, r0
